Certificate:
    Data:
        Version: 3 (0x2)
        Serial Number:
            2e:d6:64:ce:0c:f9:5a:5b:4e:c3:84:ff:6d:55:25:3b:f4:54:f0:6e
        Signature Algorithm: ecdsa-with-SHA256
        Issuer: CN = CA-ECDSA
        Validity
            Not Before: Jun  5 02:53:45 2019 GMT
            Not After : Jun  2 02:53:45 2029 GMT
        Subject: CN = CA-ECDSA
        Subject Public Key Info:
            Public Key Algorithm: id-ecPublicKey
                Public-Key: (256 bit)
                pub:
                    04:f3:2b:e7:03:a0:5d:f0:bb:8e:00:e3:69:2a:35:
                    54:29:7c:db:ee:74:4d:38:92:fe:90:7e:a4:6e:df:
                    60:d8:51:aa:12:7a:30:d8:c8:a9:72:b8:6e:92:e0:
                    2a:a5:12:9b:0d:a3:8c:06:ac:af:67:4a:06:66:e6:
                    a4:ad:9a:5c:f0
                ASN1 OID: prime256v1
                NIST CURVE: P-256
        X509v3 extensions:
            X509v3 Subject Key Identifier: 
                CC:50:36:F5:96:D1:7A:CF:05:BB:E2:7C:5F:59:EB:46:2A:AD:76:B5
            X509v3 Authority Key Identifier: 
                keyid:CC:50:36:F5:96:D1:7A:CF:05:BB:E2:7C:5F:59:EB:46:2A:AD:76:B5

            X509v3 Basic Constraints: critical
                CA:TRUE
    Signature Algorithm: ecdsa-with-SHA256
         30:46:02:21:00:96:1b:da:dc:0d:c0:6a:70:84:d1:85:23:16:
         9c:c9:3c:1c:c7:b7:38:04:2c:79:af:bc:92:8c:7d:dd:04:7c:
         6f:02:21:00:a8:08:35:a9:d5:31:00:59:d3:a3:15:e1:3d:82:
         03:06:8e:7d:3c:fc:e8:eb:8f:2f:07:8c:83:6a:0e:61:19:c2
-----BEGIN CERTIFICATE-----
MIIBfDCCASGgAwIBAgIULtZkzgz5WltOw4T/bVUlO/RU8G4wCgYIKoZIzj0EAwIw
EzERMA8GA1UEAwwIQ0EtRUNEU0EwHhcNMTkwNjA1MDI1MzQ1WhcNMjkwNjAyMDI1
MzQ1WjATMREwDwYDVQQDDAhDQS1FQ0RTQTBZMBMGByqGSM49AgEGCCqGSM49AwEH
A0IABPMr5wOgXfC7jgDjaSo1VCl82+50TTiS/pB+pG7fYNhRqhJ6MNjIqXK4bpLg
KqUSmw2jjAasr2dKBmbmpK2aXPCjUzBRMB0GA1UdDgQWBBTMUDb1ltF6zwW74nxf
WetGKq12tTAfBgNVHSMEGDAWgBTMUDb1ltF6zwW74nxfWetGKq12tTAPBgNVHRMB
Af8EBTADAQH/MAoGCCqGSM49BAMCA0kAMEYCIQCWG9rcDcBqcITRhSMWnMk8HMe3
OAQsea+8kox93QR8bwIhAKgINanVMQBZ06MV4T2CAwaOfTz86OuPLweMg2oOYRnC
-----END CERTIFICATE-----
