Certificate:
    Data:
        Version: 3 (0x2)
        Serial Number:
            52:bd:56:ff:4e:65:6f:9b:60:76:c2:88:d1:87:d9:e6:31:33:97:99
        Signature Algorithm: ecdsa-with-SHA512
        Issuer: CN = CA-ECDSA-SECP521R1
        Validity
            Not Before: Jul 30 09:20:59 2020 GMT
            Not After : Jul 28 09:20:59 2030 GMT
        Subject: CN = CA-ECDSA-SECP521R1
        Subject Public Key Info:
            Public Key Algorithm: id-ecPublicKey
                Public-Key: (521 bit)
                pub:
                    04:01:83:2f:11:91:48:60:e4:9d:68:e5:11:6a:48:
                    33:8b:8f:46:3b:fc:ba:4b:ab:43:90:24:c7:60:5b:
                    c7:e5:9a:1a:95:e6:81:2e:d9:e6:6d:b5:a9:59:24:
                    0f:62:e5:23:6a:ec:8b:2c:5e:22:5f:23:59:18:3d:
                    2f:ee:b0:b2:be:36:20:01:ed:63:5a:35:78:4a:21:
                    f1:f6:c7:f9:c6:b7:85:23:29:b1:90:36:a3:46:4c:
                    90:e8:a9:4b:5d:a2:f5:1a:ea:84:70:69:e6:f9:9b:
                    76:c9:23:7d:58:80:4b:ca:35:4b:6a:6d:af:e1:7f:
                    83:09:18:01:74:d7:f9:72:72:8e:a2:51:e4
                ASN1 OID: secp521r1
                NIST CURVE: P-521
        X509v3 extensions:
            X509v3 Basic Constraints: critical
                CA:TRUE
            X509v3 Subject Key Identifier: 
                44:56:E3:9D:BE:AB:36:12:90:A4:4A:6E:66:6B:44:3D:0D:FA:2A:E6
            X509v3 Authority Key Identifier: 
                keyid:44:56:E3:9D:BE:AB:36:12:90:A4:4A:6E:66:6B:44:3D:0D:FA:2A:E6

            X509v3 Key Usage: critical
                Digital Signature, Certificate Sign, CRL Sign
    Signature Algorithm: ecdsa-with-SHA512
         30:81:88:02:42:01:05:98:9f:03:22:4e:94:ef:9b:40:bb:db:
         3d:b4:bc:62:a1:c8:cb:05:00:65:63:19:a1:89:a2:ca:cd:1a:
         e6:ce:1c:c3:90:ef:b9:6a:62:f8:ab:b2:83:eb:b0:43:5a:7a:
         41:88:89:ba:d4:96:22:de:02:d8:27:70:40:a9:82:c8:c8:02:
         42:01:2b:65:d3:6f:12:64:dc:65:1a:06:e5:32:22:c9:b3:48:
         64:e8:0f:2f:52:64:57:82:52:02:12:22:96:2c:d0:33:61:d1:
         dc:5a:5a:3d:0f:85:3d:29:96:36:ee:cc:fb:2f:1b:b9:a3:68:
         06:00:26:a3:b6:54:dd:8b:e6:4b:da:f5:2b
-----BEGIN CERTIFICATE-----
MIICJzCCAYigAwIBAgIUUr1W/05lb5tgdsKI0YfZ5jEzl5kwCgYIKoZIzj0EAwQw
HTEbMBkGA1UEAwwSQ0EtRUNEU0EtU0VDUDUyMVIxMB4XDTIwMDczMDA5MjA1OVoX
DTMwMDcyODA5MjA1OVowHTEbMBkGA1UEAwwSQ0EtRUNEU0EtU0VDUDUyMVIxMIGb
MBAGByqGSM49AgEGBSuBBAAjA4GGAAQBgy8RkUhg5J1o5RFqSDOLj0Y7/LpLq0OQ
JMdgW8flmhqV5oEu2eZttalZJA9i5SNq7IssXiJfI1kYPS/usLK+NiAB7WNaNXhK
IfH2x/nGt4UjKbGQNqNGTJDoqUtdovUa6oRwaeb5m3bJI31YgEvKNUtqba/hf4MJ
GAF01/lyco6iUeSjYzBhMA8GA1UdEwEB/wQFMAMBAf8wHQYDVR0OBBYEFERW452+
qzYSkKRKbmZrRD0N+irmMB8GA1UdIwQYMBaAFERW452+qzYSkKRKbmZrRD0N+irm
MA4GA1UdDwEB/wQEAwIBhjAKBggqhkjOPQQDBAOBjAAwgYgCQgEFmJ8DIk6U75tA
u9s9tLxiocjLBQBlYxmhiaLKzRrmzhzDkO+5amL4q7KD67BDWnpBiIm61JYi3gLY
J3BAqYLIyAJCAStl028SZNxlGgblMiLJs0hk6A8vUmRXglICEiKWLNAzYdHcWlo9
D4U9KZY27sz7Lxu5o2gGACajtlTdi+ZL2vUr
-----END CERTIFICATE-----
