Certificate:
    Data:
        Version: 3 (0x2)
        Serial Number:
            24:80:b3:80:d2:0d:d5:2a:79:42:d6:09:85:a2:14:97:a0:82:35:93
        Signature Algorithm: ecdsa-with-SHA384
        Issuer: CN = CA-ECDSA-SECP384R1
        Validity
            Not Before: Jul 30 09:20:59 2020 GMT
            Not After : Jul 28 09:20:59 2030 GMT
        Subject: CN = CA-ECDSA-SECP384R1
        Subject Public Key Info:
            Public Key Algorithm: id-ecPublicKey
                Public-Key: (384 bit)
                pub:
                    04:e8:96:30:21:f2:b5:ae:16:89:21:c6:cc:dc:98:
                    8d:a4:04:c0:4e:66:7d:28:52:ce:86:73:84:5f:d3:
                    0e:c6:05:17:78:40:58:d9:ce:ea:a7:8e:77:33:07:
                    5d:c3:07:73:76:d6:5f:c9:a0:d8:0a:b4:23:3c:d3:
                    8b:5e:cb:79:18:50:73:63:db:f6:0e:98:f6:f9:61:
                    1c:35:12:ad:e8:49:3f:16:d0:d5:f1:59:a8:68:73:
                    22:a5:82:9f:e7:84:ee
                ASN1 OID: secp384r1
                NIST CURVE: P-384
        X509v3 extensions:
            X509v3 Basic Constraints: critical
                CA:TRUE
            X509v3 Subject Key Identifier: 
                44:F7:0E:8D:77:4C:FB:B3:5C:4F:9D:D1:1E:25:8B:EC:46:54:5E:C0
            X509v3 Authority Key Identifier: 
                keyid:44:F7:0E:8D:77:4C:FB:B3:5C:4F:9D:D1:1E:25:8B:EC:46:54:5E:C0

            X509v3 Key Usage: critical
                Digital Signature, Certificate Sign, CRL Sign
    Signature Algorithm: ecdsa-with-SHA384
         30:64:02:30:50:25:1c:3a:49:08:cf:7c:a4:81:a6:73:c8:f0:
         d3:30:5b:c0:fd:b8:91:40:fe:0d:6c:76:87:da:03:f2:c5:6d:
         16:a4:3b:ca:b8:e4:63:a2:6a:44:02:d5:88:a1:eb:f5:02:30:
         3d:86:e7:ac:18:3b:7d:49:79:5d:75:bf:26:7d:0e:78:32:ba:
         88:d3:81:71:c9:92:4b:75:47:77:1a:43:64:1d:c6:7d:97:7c:
         2d:c4:5d:57:e7:15:5e:01:82:4b:1c:9a
-----BEGIN CERTIFICATE-----
MIIB2zCCAWKgAwIBAgIUJICzgNIN1Sp5QtYJhaIUl6CCNZMwCgYIKoZIzj0EAwMw
HTEbMBkGA1UEAwwSQ0EtRUNEU0EtU0VDUDM4NFIxMB4XDTIwMDczMDA5MjA1OVoX
DTMwMDcyODA5MjA1OVowHTEbMBkGA1UEAwwSQ0EtRUNEU0EtU0VDUDM4NFIxMHYw
EAYHKoZIzj0CAQYFK4EEACIDYgAE6JYwIfK1rhaJIcbM3JiNpATATmZ9KFLOhnOE
X9MOxgUXeEBY2c7qp453MwddwwdzdtZfyaDYCrQjPNOLXst5GFBzY9v2Dpj2+WEc
NRKt6Ek/FtDV8VmoaHMipYKf54Tuo2MwYTAPBgNVHRMBAf8EBTADAQH/MB0GA1Ud
DgQWBBRE9w6Nd0z7s1xPndEeJYvsRlRewDAfBgNVHSMEGDAWgBRE9w6Nd0z7s1xP
ndEeJYvsRlRewDAOBgNVHQ8BAf8EBAMCAYYwCgYIKoZIzj0EAwMDZwAwZAIwUCUc
OkkIz3ykgaZzyPDTMFvA/biRQP4NbHaH2gPyxW0WpDvKuORjompEAtWIoev1AjA9
huesGDt9SXlddb8mfQ54MrqI04FxyZJLdUd3GkNkHcZ9l3wtxF1X5xVeAYJLHJo=
-----END CERTIFICATE-----
