Certificate:
    Data:
        Version: 3 (0x2)
        Serial Number:
            7a:04:b4:68:0d:1a:f5:32:54:e5:d6:81:bc:46:5a:38:bb:f5:34:77
        Signature Algorithm: ecdsa-with-SHA256
        Issuer: CN = CA-ECDSA-SECP384R1
        Validity
            Not Before: Jun 28 02:54:28 2019 GMT
            Not After : Jun 25 02:54:28 2029 GMT
        Subject: CN = CA-ECDSA-SECP384R1
        Subject Public Key Info:
            Public Key Algorithm: id-ecPublicKey
                Public-Key: (384 bit)
                pub:
                    04:44:fe:c3:df:0e:2e:0f:6d:3d:d6:d2:f4:9f:f4:
                    e8:ae:0b:43:12:67:02:f7:32:11:64:90:1d:b1:bb:
                    27:0d:76:b1:c1:26:fe:6e:1f:3b:90:52:71:ea:37:
                    54:63:a4:f2:64:cd:00:bf:e7:8f:72:f3:2a:6a:21:
                    1a:6e:f4:fb:bc:8d:6e:e7:01:b6:c0:40:58:2f:ed:
                    3f:28:57:93:2b:22:e0:5e:ac:52:b1:c2:cc:24:8d:
                    76:77:2c:b5:87:fb:45
                ASN1 OID: secp384r1
                NIST CURVE: P-384
        X509v3 extensions:
            X509v3 Subject Key Identifier: 
                3C:0C:58:BD:97:17:25:ED:BB:79:EE:D2:46:4B:42:CE:67:BD:1B:77
            X509v3 Authority Key Identifier: 
                keyid:3C:0C:58:BD:97:17:25:ED:BB:79:EE:D2:46:4B:42:CE:67:BD:1B:77

            X509v3 Basic Constraints: critical
                CA:TRUE
    Signature Algorithm: ecdsa-with-SHA256
         30:64:02:30:53:44:e8:e5:1c:42:dc:c6:29:71:8e:b6:88:01:
         2e:2e:08:e6:8f:39:94:7d:db:fa:70:4d:6c:c0:4b:f6:d4:d6:
         36:a6:39:07:8c:6d:23:4f:8e:30:be:0a:7f:d5:f6:9c:02:30:
         77:52:8d:ca:1b:94:53:13:28:3a:1f:95:ee:be:e3:50:05:ae:
         e6:01:d5:c4:c5:ca:8f:2b:85:87:da:5e:66:09:8c:e6:5a:39:
         24:a8:5d:bf:17:04:53:5c:6f:eb:d8:f1
-----BEGIN CERTIFICATE-----
MIIByzCCAVKgAwIBAgIUegS0aA0a9TJU5daBvEZaOLv1NHcwCgYIKoZIzj0EAwIw
HTEbMBkGA1UEAwwSQ0EtRUNEU0EtU0VDUDM4NFIxMB4XDTE5MDYyODAyNTQyOFoX
DTI5MDYyNTAyNTQyOFowHTEbMBkGA1UEAwwSQ0EtRUNEU0EtU0VDUDM4NFIxMHYw
EAYHKoZIzj0CAQYFK4EEACIDYgAERP7D3w4uD2091tL0n/TorgtDEmcC9zIRZJAd
sbsnDXaxwSb+bh87kFJx6jdUY6TyZM0Av+ePcvMqaiEabvT7vI1u5wG2wEBYL+0/
KFeTKyLgXqxSscLMJI12dyy1h/tFo1MwUTAdBgNVHQ4EFgQUPAxYvZcXJe27ee7S
RktCzme9G3cwHwYDVR0jBBgwFoAUPAxYvZcXJe27ee7SRktCzme9G3cwDwYDVR0T
AQH/BAUwAwEB/zAKBggqhkjOPQQDAgNnADBkAjBTROjlHELcxilxjraIAS4uCOaP
OZR92/pwTWzAS/bU1jamOQeMbSNPjjC+Cn/V9pwCMHdSjcoblFMTKDofle6+41AF
ruYB1cTFyo8rhYfaXmYJjOZaOSSoXb8XBFNcb+vY8Q==
-----END CERTIFICATE-----
