Certificate:
    Data:
        Version: 3 (0x2)
        Serial Number:
            73:3d:35:96:3f:a0:ec:89:0c:c2:98:8b:d0:f3:84:5c:2e:11:79:dc
        Signature Algorithm: ecdsa-with-SHA256
        Issuer: CN = CA-ECDSA-SECP256R1
        Validity
            Not Before: Jul 30 09:20:59 2020 GMT
            Not After : Jul 28 09:20:59 2030 GMT
        Subject: CN = CA-ECDSA-SECP256R1
        Subject Public Key Info:
            Public Key Algorithm: id-ecPublicKey
                Public-Key: (256 bit)
                pub:
                    04:ab:25:b2:40:88:8b:d2:1e:19:e4:f3:c0:e4:e7:
                    2d:16:be:e5:f4:e3:6f:50:b4:f3:ce:f9:59:a0:c6:
                    6a:e7:dd:5f:9c:a9:95:82:9c:21:68:b3:ac:a6:84:
                    1e:cb:50:ea:f0:2a:05:f4:46:70:a0:45:3e:6c:82:
                    10:05:b6:fe:cb
                ASN1 OID: prime256v1
                NIST CURVE: P-256
        X509v3 extensions:
            X509v3 Basic Constraints: critical
                CA:TRUE
            X509v3 Subject Key Identifier: 
                31:49:26:40:5F:9B:BA:12:CD:7C:44:37:12:2F:FE:76:F9:D7:37:2A
            X509v3 Authority Key Identifier: 
                keyid:31:49:26:40:5F:9B:BA:12:CD:7C:44:37:12:2F:FE:76:F9:D7:37:2A

            X509v3 Key Usage: critical
                Digital Signature, Certificate Sign, CRL Sign
    Signature Algorithm: ecdsa-with-SHA256
         30:46:02:21:00:87:97:0a:0b:ef:0d:87:2b:52:ef:fc:59:67:
         63:0d:5b:8a:55:61:92:c4:13:7a:45:a3:22:8a:a3:08:35:21:
         0c:02:21:00:fb:89:9f:b1:a1:17:3e:ee:9a:f9:ed:ad:31:11:
         4b:6e:5a:c9:ff:bc:7f:31:08:77:f5:a2:41:91:a9:1b:4f:32
-----BEGIN CERTIFICATE-----
MIIBoDCCAUWgAwIBAgIUcz01lj+g7IkMwpiL0POEXC4RedwwCgYIKoZIzj0EAwIw
HTEbMBkGA1UEAwwSQ0EtRUNEU0EtU0VDUDI1NlIxMB4XDTIwMDczMDA5MjA1OVoX
DTMwMDcyODA5MjA1OVowHTEbMBkGA1UEAwwSQ0EtRUNEU0EtU0VDUDI1NlIxMFkw
EwYHKoZIzj0CAQYIKoZIzj0DAQcDQgAEqyWyQIiL0h4Z5PPA5OctFr7l9ONvULTz
zvlZoMZq591fnKmVgpwhaLOspoQey1Dq8CoF9EZwoEU+bIIQBbb+y6NjMGEwDwYD
VR0TAQH/BAUwAwEB/zAdBgNVHQ4EFgQUMUkmQF+buhLNfEQ3Ei/+dvnXNyowHwYD
VR0jBBgwFoAUMUkmQF+buhLNfEQ3Ei/+dvnXNyowDgYDVR0PAQH/BAQDAgGGMAoG
CCqGSM49BAMCA0kAMEYCIQCHlwoL7w2HK1Lv/FlnYw1bilVhksQTekWjIoqjCDUh
DAIhAPuJn7GhFz7umvntrTERS25ayf+8fzEId/WiQZGpG08y
-----END CERTIFICATE-----
