Certificate:
    Data:
        Version: 3 (0x2)
        Serial Number:
            0f:f3:47:4f:90:36:2e:27:07:43:cf:56:fe:6e:07:86:7f:d0:e1:1c
        Signature Algorithm: ecdsa-with-SHA256
        Issuer: CN = CA-ECDSA-SECP256R1
        Validity
            Not Before: Jun 28 02:54:28 2019 GMT
            Not After : Jun 25 02:54:28 2029 GMT
        Subject: CN = CA-ECDSA-SECP256R1
        Subject Public Key Info:
            Public Key Algorithm: id-ecPublicKey
                Public-Key: (256 bit)
                pub:
                    04:9d:19:72:d3:3c:c6:10:f2:85:57:2b:28:a8:e0:
                    70:39:83:d0:e1:81:26:41:e0:6d:f9:7c:d3:dd:01:
                    7f:9d:87:27:b9:b7:18:98:2e:93:34:8e:f8:85:c1:
                    40:2e:00:36:dc:f5:9f:da:e1:d3:2b:ca:e0:25:7d:
                    e5:95:83:f3:9c
                ASN1 OID: prime256v1
                NIST CURVE: P-256
        X509v3 extensions:
            X509v3 Subject Key Identifier: 
                2C:1B:F6:89:59:08:79:CF:32:F2:DD:EC:2D:BD:DE:96:03:C9:E3:82
            X509v3 Authority Key Identifier: 
                keyid:2C:1B:F6:89:59:08:79:CF:32:F2:DD:EC:2D:BD:DE:96:03:C9:E3:82

            X509v3 Basic Constraints: critical
                CA:TRUE
    Signature Algorithm: ecdsa-with-SHA256
         30:45:02:21:00:8a:eb:a3:d0:b1:c5:b5:85:53:2a:22:a0:09:
         94:e6:dc:66:aa:06:a0:a7:3f:0e:c6:6e:f2:b2:6c:17:60:67:
         4d:02:20:20:49:3a:6e:55:60:87:3a:e3:e8:05:f2:c8:9a:df:
         dd:72:44:d3:8d:ec:17:33:ca:1c:fa:aa:93:ac:90:6c:25
-----BEGIN CERTIFICATE-----
MIIBjzCCATWgAwIBAgIUD/NHT5A2LicHQ89W/m4Hhn/Q4RwwCgYIKoZIzj0EAwIw
HTEbMBkGA1UEAwwSQ0EtRUNEU0EtU0VDUDI1NlIxMB4XDTE5MDYyODAyNTQyOFoX
DTI5MDYyNTAyNTQyOFowHTEbMBkGA1UEAwwSQ0EtRUNEU0EtU0VDUDI1NlIxMFkw
EwYHKoZIzj0CAQYIKoZIzj0DAQcDQgAEnRly0zzGEPKFVysoqOBwOYPQ4YEmQeBt
+XzT3QF/nYcnubcYmC6TNI74hcFALgA23PWf2uHTK8rgJX3llYPznKNTMFEwHQYD
VR0OBBYEFCwb9olZCHnPMvLd7C293pYDyeOCMB8GA1UdIwQYMBaAFCwb9olZCHnP
MvLd7C293pYDyeOCMA8GA1UdEwEB/wQFMAMBAf8wCgYIKoZIzj0EAwIDSAAwRQIh
AIrro9CxxbWFUyoioAmU5txmqgagpz8Oxm7ysmwXYGdNAiAgSTpuVWCHOuPoBfLI
mt/dckTTjewXM8oc+qqTrJBsJQ==
-----END CERTIFICATE-----
