Certificate:
    Data:
        Version: 3 (0x2)
        Serial Number:
            16:65:72:59:3f:e9:83:30:f7:c7:38:ab:fa:05:18:b1:58:c3:29:7c
        Signature Algorithm: sha256WithRSAEncryption
        Issuer: CN = CA-PSS
        Validity
            Not Before: Jul 30 09:20:59 2020 GMT
            Not After : Jul 28 09:20:59 2030 GMT
        Subject: CN = CA-PSS
        Subject Public Key Info:
            Public Key Algorithm: rsaEncryption
                RSA Public-Key: (2048 bit)
                Modulus:
                    00:d2:25:1a:fc:24:5d:b1:fb:cf:2f:c2:ff:cd:50:
                    c9:72:b3:d5:cc:e5:79:b6:70:d6:c9:65:9f:f7:13:
                    8b:8a:99:c3:94:b9:a6:8b:3d:6c:01:48:70:82:d7:
                    6b:24:24:5a:39:f6:00:65:8f:9b:05:46:c5:4f:e2:
                    35:0b:10:02:d5:55:23:b4:1b:67:92:48:9b:2b:b3:
                    83:2c:ac:f2:b7:ee:ac:f4:a2:cb:01:45:52:8e:7a:
                    5c:3f:0e:d7:bb:03:1a:03:be:dd:93:9d:be:0f:c8:
                    bf:81:9c:cf:a4:5b:37:0a:50:8a:31:57:93:3c:d1:
                    1d:fd:77:23:54:9d:43:5a:2f:93:38:b7:c7:98:5d:
                    f0:c1:5a:33:98:6b:75:84:04:07:c6:1d:48:5d:59:
                    4d:47:e3:e8:89:92:65:b0:d4:43:e7:9d:9c:4e:bc:
                    a3:18:ea:f0:8d:43:7a:ca:23:6e:14:a5:52:84:da:
                    73:de:91:e4:92:5c:62:a2:c8:e2:10:f3:4b:c1:a1:
                    8a:52:23:6a:8c:05:81:35:3f:c2:20:46:3a:69:48:
                    3d:c4:64:2c:bf:f4:ba:93:f4:8e:fa:e7:2d:48:61:
                    10:fd:76:ab:70:2f:bf:f3:a9:90:cd:a4:31:80:f5:
                    be:61:2f:eb:6f:ed:1b:17:46:39:ee:32:90:dc:f6:
                    ce:bd
                Exponent: 65537 (0x10001)
        X509v3 extensions:
            X509v3 Basic Constraints: critical
                CA:TRUE
            X509v3 Subject Key Identifier: 
                A6:1C:DD:7A:C9:7D:3E:A8:78:91:7D:B5:75:2D:87:6C:DB:4F:00:FB
            X509v3 Authority Key Identifier: 
                keyid:A6:1C:DD:7A:C9:7D:3E:A8:78:91:7D:B5:75:2D:87:6C:DB:4F:00:FB

            X509v3 Key Usage: critical
                Digital Signature, Certificate Sign, CRL Sign
    Signature Algorithm: sha256WithRSAEncryption
         53:f7:61:db:3e:7d:de:ff:e4:bf:9b:ca:db:13:3b:47:e3:10:
         8e:ca:9c:0b:57:cc:4e:f6:23:a1:a6:20:6a:98:ab:de:cf:ba:
         0c:01:3e:51:4a:13:9f:fd:58:8e:cb:00:b3:2b:69:4d:24:31:
         c9:4e:53:fb:0c:8e:f3:5e:19:20:15:f2:0f:ce:db:8c:7d:65:
         7b:3a:cd:bd:70:6c:04:f8:f4:7f:1d:4e:29:1e:cb:48:3e:2b:
         7e:50:c3:20:ca:d0:5b:58:92:3b:21:39:9c:13:d5:31:fe:27:
         25:92:63:05:dc:0e:20:86:b1:11:f3:a3:9c:71:80:15:aa:36:
         0e:4f:f3:16:61:93:4f:8b:04:9a:3d:1e:bf:af:1d:b9:de:3a:
         c1:62:3f:8d:e0:ce:29:e4:a2:5d:ca:56:0b:31:34:a8:ed:97:
         96:7e:4d:0f:7b:83:b2:ff:06:ef:33:ee:d3:be:08:49:78:21:
         84:7f:55:18:29:fc:03:26:9f:06:35:8a:2a:2f:95:9a:6d:39:
         10:50:bd:1c:5b:32:e5:7c:54:54:bb:6a:9d:8a:13:08:59:fd:
         f2:93:e3:66:b0:68:8c:65:78:b6:49:bf:3d:69:5a:42:df:98:
         b3:51:6b:7a:52:b9:97:06:77:50:c9:3d:7f:a1:17:f6:20:c5:
         30:84:cc:eb
-----BEGIN CERTIFICATE-----
MIIDEzCCAfugAwIBAgIUFmVyWT/pgzD3xzir+gUYsVjDKXwwDQYJKoZIhvcNAQEL
BQAwETEPMA0GA1UEAwwGQ0EtUFNTMB4XDTIwMDczMDA5MjA1OVoXDTMwMDcyODA5
MjA1OVowETEPMA0GA1UEAwwGQ0EtUFNTMIIBIjANBgkqhkiG9w0BAQEFAAOCAQ8A
MIIBCgKCAQEA0iUa/CRdsfvPL8L/zVDJcrPVzOV5tnDWyWWf9xOLipnDlLmmiz1s
AUhwgtdrJCRaOfYAZY+bBUbFT+I1CxAC1VUjtBtnkkibK7ODLKzyt+6s9KLLAUVS
jnpcPw7XuwMaA77dk52+D8i/gZzPpFs3ClCKMVeTPNEd/XcjVJ1DWi+TOLfHmF3w
wVozmGt1hAQHxh1IXVlNR+PoiZJlsNRD552cTryjGOrwjUN6yiNuFKVShNpz3pHk
klxiosjiEPNLwaGKUiNqjAWBNT/CIEY6aUg9xGQsv/S6k/SO+uctSGEQ/XarcC+/
86mQzaQxgPW+YS/rb+0bF0Y57jKQ3PbOvQIDAQABo2MwYTAPBgNVHRMBAf8EBTAD
AQH/MB0GA1UdDgQWBBSmHN16yX0+qHiRfbV1LYds208A+zAfBgNVHSMEGDAWgBSm
HN16yX0+qHiRfbV1LYds208A+zAOBgNVHQ8BAf8EBAMCAYYwDQYJKoZIhvcNAQEL
BQADggEBAFP3Yds+fd7/5L+bytsTO0fjEI7KnAtXzE72I6GmIGqYq97PugwBPlFK
E5/9WI7LALMraU0kMclOU/sMjvNeGSAV8g/O24x9ZXs6zb1wbAT49H8dTikey0g+
K35QwyDK0FtYkjshOZwT1TH+JyWSYwXcDiCGsRHzo5xxgBWqNg5P8xZhk0+LBJo9
Hr+vHbneOsFiP43gzinkol3KVgsxNKjtl5Z+TQ97g7L/Bu8z7tO+CEl4IYR/VRgp
/AMmnwY1iiovlZptORBQvRxbMuV8VFS7ap2KEwhZ/fKT42awaIxleLZJvz1pWkLf
mLNRa3pSuZcGd1DJPX+hF/YgxTCEzOs=
-----END CERTIFICATE-----
