Certificate:
    Data:
        Version: 3 (0x2)
        Serial Number:
            6a:87:7b:17:61:a4:a2:44:e1:1e:2c:dd:bd:3a:a2:97:0c:e0:bc:85
        Signature Algorithm: sha256WithRSAEncryption
        Issuer: CN = CA-RSA
        Validity
            Not Before: Jul 30 09:20:58 2020 GMT
            Not After : Jul 28 09:20:58 2030 GMT
        Subject: CN = CA-RSA
        Subject Public Key Info:
            Public Key Algorithm: rsaEncryption
                RSA Public-Key: (2048 bit)
                Modulus:
                    00:9d:75:54:dc:87:88:c6:e7:5e:04:57:dd:21:cc:
                    35:88:63:db:36:41:43:95:53:5d:d6:fe:e4:76:48:
                    26:21:5e:5c:71:d0:5f:90:f9:50:fa:5e:1b:2a:69:
                    dc:21:8b:bf:a4:c0:5f:f0:cf:f8:3d:5b:c0:49:a4:
                    5c:c1:59:9d:e3:e9:86:c3:04:35:25:ef:e1:4c:90:
                    8d:7c:2c:72:a7:32:0e:79:21:5b:6e:36:dc:f5:6a:
                    11:d0:8b:c6:7a:6f:47:71:6c:5d:1c:0a:6d:ba:1d:
                    9b:0f:24:69:5c:55:f8:df:e5:b2:c0:40:bb:95:36:
                    98:cc:ab:f6:27:ab:ca:15:58:61:2a:33:e6:d6:5a:
                    22:d9:2c:fb:d3:d4:ad:e8:f5:fe:c8:39:da:e8:fc:
                    c3:5c:87:4e:c7:9c:c7:f7:92:5a:a6:6b:b7:9e:90:
                    31:f1:e6:7a:09:47:16:4a:e0:5c:ae:5b:46:e6:be:
                    fb:24:c3:d4:6c:72:49:2c:86:66:62:2a:e3:b1:40:
                    8e:fb:b8:6e:28:f8:b9:f0:26:be:91:e5:1b:71:39:
                    fc:13:5a:70:59:2f:58:e4:22:c7:44:14:e6:d9:23:
                    dc:f2:4d:fe:9c:71:6a:88:08:8c:f5:19:17:44:ce:
                    48:fc:e9:ef:40:24:43:e3:2c:91:30:62:57:0b:04:
                    9b:39
                Exponent: 65537 (0x10001)
        X509v3 extensions:
            X509v3 Basic Constraints: critical
                CA:TRUE
            X509v3 Subject Key Identifier: 
                DA:52:2A:D6:61:35:DB:7A:12:FD:14:FD:AD:78:CA:0B:BD:F9:DD:59
            X509v3 Authority Key Identifier: 
                keyid:DA:52:2A:D6:61:35:DB:7A:12:FD:14:FD:AD:78:CA:0B:BD:F9:DD:59

            X509v3 Key Usage: critical
                Digital Signature, Certificate Sign, CRL Sign
    Signature Algorithm: sha256WithRSAEncryption
         3e:d7:8a:e5:2d:6a:a6:e9:64:ed:6e:18:09:a0:92:e7:01:f1:
         23:1d:4a:a8:3c:5b:85:5e:6a:a2:d9:22:54:97:25:0d:5c:b9:
         00:6f:a8:4a:16:97:0f:2a:fa:1f:34:a3:cf:44:81:c4:0e:47:
         a3:0e:f5:ed:1e:53:3a:a2:21:fb:c2:eb:61:21:ed:a7:7b:1a:
         e3:e8:39:a7:c6:a0:ab:72:75:ff:01:10:4e:07:28:a0:6e:eb:
         18:37:19:1a:87:b5:0b:40:86:82:cf:5a:bc:1a:05:4f:7b:e4:
         16:8a:38:89:c5:bc:a4:1c:05:8d:fb:de:f7:d1:34:8b:91:21:
         2d:9e:5e:66:ea:6a:4e:30:c5:a0:4e:95:88:ef:8f:78:c5:d2:
         d8:f2:1e:c2:95:1c:4d:19:b0:e5:aa:fe:43:13:f0:a3:5d:cc:
         70:31:26:b7:d6:c3:0b:d1:5d:b7:ab:2e:98:f2:3f:b1:85:8c:
         9b:5b:9b:79:0a:85:db:f0:35:b6:84:f3:be:d0:47:78:d5:88:
         cb:d0:6d:69:f6:13:db:83:01:a1:43:88:e8:91:2d:4d:82:7e:
         9d:06:b4:63:8a:68:30:51:8d:1e:c4:bd:6d:e1:e2:e1:bd:e9:
         1d:07:bd:99:45:e1:1f:a3:4f:b6:90:30:1a:52:93:95:84:26:
         db:f9:b1:d5
-----BEGIN CERTIFICATE-----
MIIDEzCCAfugAwIBAgIUaod7F2GkokThHizdvTqilwzgvIUwDQYJKoZIhvcNAQEL
BQAwETEPMA0GA1UEAwwGQ0EtUlNBMB4XDTIwMDczMDA5MjA1OFoXDTMwMDcyODA5
MjA1OFowETEPMA0GA1UEAwwGQ0EtUlNBMIIBIjANBgkqhkiG9w0BAQEFAAOCAQ8A
MIIBCgKCAQEAnXVU3IeIxudeBFfdIcw1iGPbNkFDlVNd1v7kdkgmIV5ccdBfkPlQ
+l4bKmncIYu/pMBf8M/4PVvASaRcwVmd4+mGwwQ1Je/hTJCNfCxypzIOeSFbbjbc
9WoR0IvGem9HcWxdHAptuh2bDyRpXFX43+WywEC7lTaYzKv2J6vKFVhhKjPm1loi
2Sz709St6PX+yDna6PzDXIdOx5zH95Japmu3npAx8eZ6CUcWSuBcrltG5r77JMPU
bHJJLIZmYirjsUCO+7huKPi58Ca+keUbcTn8E1pwWS9Y5CLHRBTm2SPc8k3+nHFq
iAiM9RkXRM5I/OnvQCRD4yyRMGJXCwSbOQIDAQABo2MwYTAPBgNVHRMBAf8EBTAD
AQH/MB0GA1UdDgQWBBTaUirWYTXbehL9FP2teMoLvfndWTAfBgNVHSMEGDAWgBTa
UirWYTXbehL9FP2teMoLvfndWTAOBgNVHQ8BAf8EBAMCAYYwDQYJKoZIhvcNAQEL
BQADggEBAD7XiuUtaqbpZO1uGAmgkucB8SMdSqg8W4VeaqLZIlSXJQ1cuQBvqEoW
lw8q+h80o89EgcQOR6MO9e0eUzqiIfvC62Eh7ad7GuPoOafGoKtydf8BEE4HKKBu
6xg3GRqHtQtAhoLPWrwaBU975BaKOInFvKQcBY373vfRNIuRIS2eXmbqak4wxaBO
lYjvj3jF0tjyHsKVHE0ZsOWq/kMT8KNdzHAxJrfWwwvRXberLpjyP7GFjJtbm3kK
hdvwNbaE877QR3jViMvQbWn2E9uDAaFDiOiRLU2Cfp0GtGOKaDBRjR7EvW3h4uG9
6R0HvZlF4R+jT7aQMBpSk5WEJtv5sdU=
-----END CERTIFICATE-----
