Certificate:
    Data:
        Version: 3 (0x2)
        Serial Number:
            01:e0:6d:dd:35:83:60:b2:b0:0b:03:29:62:8d:6c:93:55:f5:60:fd
        Signature Algorithm: sha256WithRSAEncryption
        Issuer: CN = CA-RSA
        Validity
            Not Before: Jun 28 02:54:27 2019 GMT
            Not After : Jun 25 02:54:27 2029 GMT
        Subject: CN = CA-RSA
        Subject Public Key Info:
            Public Key Algorithm: rsaEncryption
                RSA Public-Key: (2048 bit)
                Modulus:
                    00:c7:f7:5a:66:f5:b9:45:c0:51:81:30:56:7c:aa:
                    da:ca:bb:b4:5a:0f:e3:bc:bc:96:4b:dd:86:c8:70:
                    a2:86:ac:07:19:c8:6c:56:0c:12:e0:85:ae:51:d2:
                    23:ae:74:9e:5c:61:de:0a:34:8b:94:da:54:e6:9c:
                    04:83:30:80:0a:7e:cf:b5:5b:cd:75:11:46:95:72:
                    b9:36:d7:6b:83:ce:ed:2d:64:6c:2e:a5:98:f9:a9:
                    49:e1:d4:4f:e2:f1:10:66:ff:8a:bf:eb:be:3d:f3:
                    6a:3d:29:c1:aa:f2:66:b8:41:c3:fc:24:6f:b9:0f:
                    a5:e6:e9:ab:73:69:fd:bb:f0:2d:ae:e2:45:7f:d5:
                    00:cb:58:d5:a0:08:2e:25:f5:a6:aa:42:19:0a:c5:
                    84:f2:8a:8a:0c:e2:18:82:02:fe:7a:b3:10:74:fd:
                    7d:f4:71:60:70:30:17:d8:78:45:9d:d9:c4:a2:35:
                    02:4c:a8:57:2f:c1:73:ae:80:7b:d8:08:36:5c:6c:
                    b3:97:6f:6c:7b:34:70:00:a6:a9:2e:2f:d5:d4:7f:
                    7e:a3:ac:85:0b:b7:fb:c0:d7:30:b0:1b:bc:06:58:
                    1f:80:3c:b7:37:1f:07:d5:8f:e1:d7:32:16:d0:11:
                    38:60:1e:66:a0:20:0b:6a:fc:81:fa:e7:ef:4f:04:
                    6b:87
                Exponent: 65537 (0x10001)
        X509v3 extensions:
            X509v3 Subject Key Identifier: 
                3A:60:5A:49:43:20:64:31:9E:B1:7D:28:96:5D:8C:6E:00:30:A6:35
            X509v3 Authority Key Identifier: 
                keyid:3A:60:5A:49:43:20:64:31:9E:B1:7D:28:96:5D:8C:6E:00:30:A6:35

            X509v3 Basic Constraints: critical
                CA:TRUE
    Signature Algorithm: sha256WithRSAEncryption
         a0:18:6c:ce:43:9a:22:10:d0:2d:bd:50:83:a5:93:fb:6e:8d:
         31:a8:f8:9b:27:b2:9c:ba:67:5b:98:37:ec:f7:a4:2b:45:05:
         62:cc:85:8e:71:67:af:36:26:a3:13:0a:b5:0f:88:7d:5a:de:
         06:46:d4:8b:ff:d9:f2:ba:e0:f2:c7:b9:5c:5c:c0:19:11:f5:
         2d:4d:96:d8:86:ff:1d:1d:c8:48:e6:06:23:2d:e3:3c:94:79:
         3d:09:e4:60:e4:aa:55:eb:fe:2d:96:d6:20:6a:af:5b:95:78:
         11:85:dd:2a:11:e5:4a:dc:de:7f:6c:d6:4e:cf:71:c0:ad:da:
         f0:77:29:f4:82:bf:6a:3b:94:30:b9:86:41:8f:c6:2d:b3:70:
         a8:1a:dc:21:98:4a:c6:ea:36:72:ee:21:a8:ef:f2:c3:60:7e:
         98:f2:bd:83:df:08:0c:fc:5e:60:0c:95:71:10:b6:1c:2a:62:
         3f:f0:bc:45:f5:7d:ae:06:39:c3:c0:f5:ed:c7:9b:74:52:c8:
         49:c7:3e:67:8f:5e:0f:bd:5d:47:c8:4f:ac:40:bc:f0:e9:14:
         39:fa:90:b9:db:d8:08:f7:94:86:b1:07:1a:62:37:90:f6:49:
         58:64:0b:cf:17:bb:1c:f8:71:88:2f:5f:ba:cf:7c:48:a6:a2:
         9a:c8:06:de
-----BEGIN CERTIFICATE-----
MIIDAzCCAeugAwIBAgIUAeBt3TWDYLKwCwMpYo1sk1X1YP0wDQYJKoZIhvcNAQEL
BQAwETEPMA0GA1UEAwwGQ0EtUlNBMB4XDTE5MDYyODAyNTQyN1oXDTI5MDYyNTAy
NTQyN1owETEPMA0GA1UEAwwGQ0EtUlNBMIIBIjANBgkqhkiG9w0BAQEFAAOCAQ8A
MIIBCgKCAQEAx/daZvW5RcBRgTBWfKrayru0Wg/jvLyWS92GyHCihqwHGchsVgwS
4IWuUdIjrnSeXGHeCjSLlNpU5pwEgzCACn7PtVvNdRFGlXK5Ntdrg87tLWRsLqWY
+alJ4dRP4vEQZv+Kv+u+PfNqPSnBqvJmuEHD/CRvuQ+l5umrc2n9u/AtruJFf9UA
y1jVoAguJfWmqkIZCsWE8oqKDOIYggL+erMQdP199HFgcDAX2HhFndnEojUCTKhX
L8FzroB72Ag2XGyzl29sezRwAKapLi/V1H9+o6yFC7f7wNcwsBu8BlgfgDy3Nx8H
1Y/h1zIW0BE4YB5moCALavyB+ufvTwRrhwIDAQABo1MwUTAdBgNVHQ4EFgQUOmBa
SUMgZDGesX0oll2MbgAwpjUwHwYDVR0jBBgwFoAUOmBaSUMgZDGesX0oll2MbgAw
pjUwDwYDVR0TAQH/BAUwAwEB/zANBgkqhkiG9w0BAQsFAAOCAQEAoBhszkOaIhDQ
Lb1Qg6WT+26NMaj4myeynLpnW5g37PekK0UFYsyFjnFnrzYmoxMKtQ+IfVreBkbU
i//Z8rrg8se5XFzAGRH1LU2W2Ib/HR3ISOYGIy3jPJR5PQnkYOSqVev+LZbWIGqv
W5V4EYXdKhHlStzef2zWTs9xwK3a8Hcp9IK/ajuUMLmGQY/GLbNwqBrcIZhKxuo2
cu4hqO/yw2B+mPK9g98IDPxeYAyVcRC2HCpiP/C8RfV9rgY5w8D17cebdFLIScc+
Z49eD71dR8hPrEC88OkUOfqQudvYCPeUhrEHGmI3kPZJWGQLzxe7HPhxiC9fus98
SKaimsgG3g==
-----END CERTIFICATE-----
