Certificate:
    Data:
        Version: 3 (0x2)
        Serial Number:
            0d:0f:6a:03:4f:2d:f4:1b:ad:38:ce:4a:de:ee:f6:e5:6b:8d:96:e6
        Signature Algorithm: rsassaPss         
         Hash Algorithm: sha256
         Mask Algorithm: mgf1 with sha256
          Salt Length: 0xDE
         Trailer Field: 0xBC (default)
        Issuer: CN = CA-PSS
        Validity
            Not Before: Jun 28 03:40:01 2019 GMT
            Not After : Jun 25 03:40:01 2029 GMT
        Subject: CN = CLIENT-PSS
        Subject Public Key Info:
            Public Key Algorithm: rsassaPss
                RSA-PSS Public-Key: (2048 bit)
                Modulus:
                    00:a4:8f:72:3a:6e:2d:df:c3:1c:43:f0:8d:91:ca:
                    cb:a8:f0:1c:e0:50:ae:26:4c:2d:c8:5e:01:9e:89:
                    c5:19:a9:60:5c:83:ac:c1:4c:74:1b:bd:35:e7:34:
                    fd:76:1e:2d:a4:6e:0b:a9:08:79:09:8d:72:1b:26:
                    8d:7e:70:92:b8:9a:94:48:29:fd:69:05:3c:46:a4:
                    9e:43:e4:bc:4f:db:a4:ad:c5:01:ea:08:bf:6e:6c:
                    62:0f:20:b0:8d:5a:f2:91:21:96:70:9a:f6:11:40:
                    87:77:dd:44:82:ec:af:39:e6:dc:27:50:ab:85:07:
                    49:91:92:af:9e:e4:c2:90:97:2a:b4:0b:3d:fa:64:
                    ac:0c:13:5a:64:c8:4e:81:9c:6c:cc:c1:37:8b:cc:
                    e0:b3:50:b9:78:ea:6d:54:d6:97:b9:6b:a0:13:f6:
                    46:3d:30:c7:7f:72:93:e1:96:0f:6a:45:67:a0:30:
                    c7:f3:76:2c:be:c1:ea:02:03:72:0f:5f:51:35:09:
                    60:77:ed:4e:6c:c1:dc:a1:91:5d:40:61:7f:09:17:
                    2b:90:f9:45:a5:c5:33:94:0e:fb:0f:26:79:8b:23:
                    ea:ae:da:a3:5e:4a:06:20:07:f2:f0:ed:ec:5c:59:
                    5f:81:7d:8c:bc:92:e5:76:14:c8:90:2d:ea:7d:38:
                    6f:af
                Exponent: 65537 (0x10001)
                No PSS parameter restrictions
        X509v3 extensions:
            X509v3 Subject Key Identifier: 
                EF:92:CC:82:0C:B1:B9:9F:7C:1A:57:3F:3A:74:F6:31:85:90:FC:FA
            X509v3 Authority Key Identifier: 
                keyid:52:A9:40:72:6F:D8:60:BF:E3:04:03:2C:F5:D4:48:08:DE:6E:00:11

    Signature Algorithm: rsassaPss         
         Hash Algorithm: sha256
         Mask Algorithm: mgf1 with sha256
          Salt Length: 0xDE
         Trailer Field: 0xBC (default)

         84:c2:ce:09:31:78:e5:a8:4e:ec:3d:5d:31:06:26:37:1c:2c:
         1a:75:bc:aa:6c:80:14:d6:67:a9:43:55:08:7b:95:7c:98:81:
         27:95:ef:f8:b4:96:2c:d7:1a:d1:ad:eb:29:18:45:ac:40:e6:
         6c:76:37:47:8e:96:ea:91:0a:cc:81:1a:ab:36:7d:2f:a3:1d:
         46:cc:96:89:d8:b3:da:63:bc:cc:08:5c:bc:4c:8d:24:59:94:
         55:39:b6:62:59:6b:56:38:63:82:c5:c8:2f:57:fe:c7:67:e9:
         28:6c:61:f3:18:35:34:b8:19:da:1a:2e:94:b3:5f:c5:4a:4a:
         51:d1:e3:ce:d1:67:af:5c:fb:d1:ed:d0:87:a5:c1:e0:ba:7d:
         3f:97:b7:2a:18:52:3e:dd:74:c9:d7:fe:08:34:0e:b9:68:de:
         05:a8:55:5f:29:ca:e5:0c:df:80:c9:da:49:83:66:4e:34:e4:
         e3:b2:cc:2c:01:ff:59:18:03:50:b8:db:17:12:d4:31:ae:22:
         b6:e7:bc:1c:13:1f:7b:86:72:df:d8:51:34:b3:21:0f:fe:e2:
         b2:b5:23:63:b3:d3:f6:45:6c:1d:7e:e0:7b:75:19:8b:f9:b2:
         8d:b6:81:8a:79:4c:5d:67:67:dd:b2:96:28:f6:8f:bf:bb:96:
         10:6c:3d:03
-----BEGIN CERTIFICATE-----
MIIDVjCCAg2gAwIBAgIUDQ9qA08t9ButOM5K3u725WuNluYwPgYJKoZIhvcNAQEK
MDGgDTALBglghkgBZQMEAgGhGjAYBgkqhkiG9w0BAQgwCwYJYIZIAWUDBAIBogQC
AgDeMBExDzANBgNVBAMMBkNBLVBTUzAeFw0xOTA2MjgwMzQwMDFaFw0yOTA2MjUw
MzQwMDFaMBUxEzARBgNVBAMMCkNMSUVOVC1QU1MwggEgMAsGCSqGSIb3DQEBCgOC
AQ8AMIIBCgKCAQEApI9yOm4t38McQ/CNkcrLqPAc4FCuJkwtyF4BnonFGalgXIOs
wUx0G7015zT9dh4tpG4LqQh5CY1yGyaNfnCSuJqUSCn9aQU8RqSeQ+S8T9ukrcUB
6gi/bmxiDyCwjVrykSGWcJr2EUCHd91EguyvOebcJ1CrhQdJkZKvnuTCkJcqtAs9
+mSsDBNaZMhOgZxszME3i8zgs1C5eOptVNaXuWugE/ZGPTDHf3KT4ZYPakVnoDDH
83YsvsHqAgNyD19RNQlgd+1ObMHcoZFdQGF/CRcrkPlFpcUzlA77DyZ5iyPqrtqj
XkoGIAfy8O3sXFlfgX2MvJLldhTIkC3qfThvrwIDAQABo0IwQDAdBgNVHQ4EFgQU
75LMggyxuZ98Glc/OnT2MYWQ/PowHwYDVR0jBBgwFoAUUqlAcm/YYL/jBAMs9dRI
CN5uABEwPgYJKoZIhvcNAQEKMDGgDTALBglghkgBZQMEAgGhGjAYBgkqhkiG9w0B
AQgwCwYJYIZIAWUDBAIBogQCAgDeA4IBAQCEws4JMXjlqE7sPV0xBiY3HCwadbyq
bIAU1mepQ1UIe5V8mIEnle/4tJYs1xrRrespGEWsQOZsdjdHjpbqkQrMgRqrNn0v
ox1GzJaJ2LPaY7zMCFy8TI0kWZRVObZiWWtWOGOCxcgvV/7HZ+kobGHzGDU0uBna
Gi6Us1/FSkpR0ePO0WevXPvR7dCHpcHgun0/l7cqGFI+3XTJ1/4INA65aN4FqFVf
KcrlDN+AydpJg2ZONOTjsswsAf9ZGANQuNsXEtQxriK257wcEx97hnLf2FE0syEP
/uKytSNjs9P2RWwdfuB7dRmL+bKNtoGKeUxdZ2fdspYo9o+/u5YQbD0D
-----END CERTIFICATE-----
