Certificate:
    Data:
        Version: 3 (0x2)
        Serial Number:
            3f:c6:bf:cb:50:86:69:c3:3b:a0:e2:0d:a7:6b:91:77:2a:e5:5b:d6
        Signature Algorithm: sha256WithRSAEncryption
        Issuer: CN = CA-PSS
        Validity
            Not Before: Jul 30 09:21:00 2020 GMT
            Not After : Jul 28 09:21:00 2030 GMT
        Subject: CN = CLIENT-PSS
        Subject Public Key Info:
            Public Key Algorithm: rsaEncryption
                RSA Public-Key: (2048 bit)
                Modulus:
                    00:df:4b:99:c9:cc:91:71:30:79:4b:c3:48:2c:aa:
                    29:a9:bf:ba:ab:49:bd:bc:3a:ff:a7:11:02:97:3c:
                    42:fe:a7:03:b8:5d:e4:35:a1:48:e9:e9:40:92:a5:
                    80:47:1e:4a:85:13:dc:bc:a1:40:b3:c2:5d:69:e4:
                    a8:f6:5b:68:ae:d5:e6:73:6b:3a:25:00:72:ad:b7:
                    8d:e2:93:b2:e0:1c:59:08:bc:db:25:68:24:9e:c4:
                    07:bd:bc:e5:a7:6a:c1:ed:26:1c:35:0f:17:01:9d:
                    c5:dd:97:cc:89:d2:53:e9:bf:1a:4d:e0:bc:a8:25:
                    5a:f2:fe:2a:ce:5f:80:d9:53:1e:ca:c0:c4:af:1a:
                    16:f3:09:48:26:5e:7c:6f:38:78:6e:73:05:07:ca:
                    1b:8e:93:3c:a0:70:92:14:d0:f7:6e:db:7b:4c:95:
                    bb:b2:12:c2:75:39:51:22:9d:b7:20:f8:a5:dd:8c:
                    6e:29:bf:a4:b0:73:95:20:2b:f6:2c:f1:d9:01:b1:
                    91:25:66:6a:a1:ff:62:ed:58:2e:29:40:4e:ed:38:
                    5d:1e:63:5f:49:3a:9d:88:6a:0e:30:16:68:f5:45:
                    6c:85:71:a6:6b:ae:f8:93:b8:d4:68:06:aa:1d:3b:
                    84:93:03:c6:c2:a9:79:27:4d:db:fe:76:0f:59:4d:
                    25:1b
                Exponent: 65537 (0x10001)
        X509v3 extensions:
            X509v3 Basic Constraints: critical
                CA:FALSE
            X509v3 Subject Key Identifier: 
                5B:93:F6:40:37:82:86:F0:2E:5B:A7:2F:A6:14:BB:0E:00:89:4B:3E
            X509v3 Authority Key Identifier: 
                keyid:A6:1C:DD:7A:C9:7D:3E:A8:78:91:7D:B5:75:2D:87:6C:DB:4F:00:FB

    Signature Algorithm: sha256WithRSAEncryption
         3b:b8:46:6f:ae:0f:cc:de:3f:05:8d:f7:21:4c:a2:43:e2:e1:
         d5:4a:11:e7:ad:51:a4:f6:71:82:eb:b5:5f:5c:82:9b:45:d0:
         d7:ca:ef:74:d7:86:5d:da:3b:bd:68:1b:95:55:44:cd:f7:5c:
         9d:17:33:15:42:bb:ae:60:c3:6d:b0:ce:a6:8b:ff:70:90:45:
         cf:4d:12:d8:3d:78:cb:41:4d:ed:f1:19:51:06:f2:ac:be:47:
         58:8d:d3:da:d5:43:d4:9a:8b:07:65:7c:ee:93:c6:d3:04:cc:
         73:38:8d:43:5d:8a:60:75:7c:b6:f1:d1:91:7e:d3:5b:19:95:
         93:73:b7:23:0c:40:20:dd:49:0a:32:65:f7:bf:cb:04:a6:e4:
         03:0d:6b:69:26:6d:ed:c3:58:15:73:39:23:c6:ec:fb:45:35:
         72:cd:52:91:35:18:e1:b4:2a:de:21:7b:74:a4:0c:41:a3:c4:
         cf:1d:36:ac:a5:a3:4f:12:b5:dd:35:c4:db:b3:9b:b0:aa:2c:
         78:87:45:80:7d:c7:66:35:3c:9a:42:c8:5c:76:26:c0:eb:60:
         09:41:a7:6a:0f:df:ef:e2:9c:a8:c6:97:cd:14:14:e1:0f:7b:
         99:45:11:31:25:9d:40:82:30:1f:e7:5c:51:8e:ac:48:78:54:
         8f:c9:b5:24
-----BEGIN CERTIFICATE-----
MIIDBDCCAeygAwIBAgIUP8a/y1CGacM7oOINp2uRdyrlW9YwDQYJKoZIhvcNAQEL
BQAwETEPMA0GA1UEAwwGQ0EtUFNTMB4XDTIwMDczMDA5MjEwMFoXDTMwMDcyODA5
MjEwMFowFTETMBEGA1UEAwwKQ0xJRU5ULVBTUzCCASIwDQYJKoZIhvcNAQEBBQAD
ggEPADCCAQoCggEBAN9LmcnMkXEweUvDSCyqKam/uqtJvbw6/6cRApc8Qv6nA7hd
5DWhSOnpQJKlgEceSoUT3LyhQLPCXWnkqPZbaK7V5nNrOiUAcq23jeKTsuAcWQi8
2yVoJJ7EB7285adqwe0mHDUPFwGdxd2XzInSU+m/Gk3gvKglWvL+Ks5fgNlTHsrA
xK8aFvMJSCZefG84eG5zBQfKG46TPKBwkhTQ927be0yVu7ISwnU5USKdtyD4pd2M
bim/pLBzlSAr9izx2QGxkSVmaqH/Yu1YLilATu04XR5jX0k6nYhqDjAWaPVFbIVx
pmuu+JO41GgGqh07hJMDxsKpeSdN2/52D1lNJRsCAwEAAaNQME4wDAYDVR0TAQH/
BAIwADAdBgNVHQ4EFgQUW5P2QDeChvAuW6cvphS7DgCJSz4wHwYDVR0jBBgwFoAU
phzdesl9Pqh4kX21dS2HbNtPAPswDQYJKoZIhvcNAQELBQADggEBADu4Rm+uD8ze
PwWN9yFMokPi4dVKEeetUaT2cYLrtV9cgptF0NfK73TXhl3aO71oG5VVRM33XJ0X
MxVCu65gw22wzqaL/3CQRc9NEtg9eMtBTe3xGVEG8qy+R1iN09rVQ9SaiwdlfO6T
xtMEzHM4jUNdimB1fLbx0ZF+01sZlZNztyMMQCDdSQoyZfe/ywSm5AMNa2kmbe3D
WBVzOSPG7PtFNXLNUpE1GOG0Kt4he3SkDEGjxM8dNqylo08Std01xNuzm7CqLHiH
RYB9x2Y1PJpCyFx2JsDrYAlBp2oP3+/inKjGl80UFOEPe5lFETElnUCCMB/nXFGO
rEh4VI/JtSQ=
-----END CERTIFICATE-----
