Certificate:
    Data:
        Version: 3 (0x2)
        Serial Number:
            58:d6:62:2d:db:84:c9:aa:a4:b9:93:7e:df:b6:9d:61:10:3e:a6:77
        Signature Algorithm: sha256WithRSAEncryption
        Issuer: CN = CA-RSA
        Validity
            Not Before: Jun 28 02:54:28 2019 GMT
            Not After : Jun 25 02:54:28 2029 GMT
        Subject: CN = CLIENT-RSA
        Subject Public Key Info:
            Public Key Algorithm: rsaEncryption
                RSA Public-Key: (2048 bit)
                Modulus:
                    00:ae:d5:aa:56:2c:e1:06:1c:de:9f:ae:69:51:ed:
                    b9:00:c2:60:90:1d:1f:43:69:12:e4:db:9a:77:73:
                    2f:b1:80:b9:22:96:36:85:b9:15:34:ba:87:77:74:
                    b1:9d:7d:ad:2f:92:18:7d:9f:9a:0a:ed:dd:24:be:
                    10:33:10:68:77:10:78:13:36:44:2a:bb:2a:6c:b3:
                    ab:da:ac:c0:29:7f:a1:92:b4:08:48:e5:7c:f8:b5:
                    dd:08:6d:47:3f:3f:52:0a:50:93:7e:66:67:2b:6f:
                    2d:0b:99:7d:26:33:3f:9c:fe:32:7e:04:1f:9b:65:
                    7e:9c:10:b8:82:00:0e:3d:cb:ba:19:0c:db:38:f8:
                    c6:5e:18:95:4c:ef:21:ba:ae:79:f4:1f:1e:2f:54:
                    98:d8:06:65:0c:ff:41:50:cf:36:7b:68:ba:67:50:
                    7f:f7:3d:23:bd:06:07:7e:d8:f9:4c:40:09:61:0f:
                    fc:c1:46:41:6c:0d:54:3f:84:83:fe:8a:fc:02:12:
                    5e:4c:07:7a:ab:fa:00:42:fb:4b:e3:be:01:49:dc:
                    6b:f8:69:ae:ec:3a:10:59:f5:23:77:23:93:3a:8e:
                    c3:63:29:1d:5a:ab:49:45:2e:6b:af:56:68:fc:53:
                    a2:19:cf:bf:a0:b6:b0:a2:63:b5:93:c1:70:f8:22:
                    20:37
                Exponent: 65537 (0x10001)
        X509v3 extensions:
            X509v3 Subject Key Identifier: 
                1C:17:1B:7F:C5:E5:BE:D3:21:46:04:49:D6:95:25:1F:B5:90:FD:84
            X509v3 Authority Key Identifier: 
                keyid:3A:60:5A:49:43:20:64:31:9E:B1:7D:28:96:5D:8C:6E:00:30:A6:35

    Signature Algorithm: sha256WithRSAEncryption
         77:27:1f:a9:e2:4a:55:b7:2e:3e:64:be:08:a7:31:e2:00:58:
         ff:13:28:2e:9c:4b:87:f9:65:f0:b4:60:af:74:05:b5:d8:26:
         a4:24:62:d9:ee:2a:5f:9c:8e:e6:65:7a:a7:9d:87:8c:e1:37:
         67:88:15:c1:cf:7b:db:15:e3:30:47:47:11:84:e8:ce:e4:53:
         67:bc:0e:1d:a2:b8:7e:c5:f4:fa:30:7d:7d:c9:dd:0d:84:62:
         bb:3a:17:0b:28:c9:5e:4a:41:06:c9:c8:84:a9:31:e7:f8:67:
         94:bd:cb:15:b7:a1:f2:a3:6f:2e:4d:7d:ed:aa:95:f4:a3:d9:
         a7:c8:86:16:df:0a:10:dc:80:45:f6:97:40:c1:32:e1:ba:f5:
         01:d1:e2:57:e6:7f:f2:74:97:4f:88:5d:a7:6a:81:c4:3c:ea:
         46:28:8c:e1:bd:11:00:09:47:a8:b2:bf:a2:96:cb:74:d6:d5:
         6b:08:74:b9:3a:f8:dc:95:e7:f9:8b:c0:56:a5:4a:a0:95:fa:
         1e:83:d3:4d:a7:ea:94:77:ff:1d:d1:b4:15:cb:03:be:be:85:
         20:3d:06:f2:45:97:85:f6:0b:45:50:df:e4:cc:26:a0:55:c4:
         c9:36:74:c6:96:40:ee:28:52:7c:7f:08:41:c2:14:aa:1f:1a:
         a3:ca:26:ea
-----BEGIN CERTIFICATE-----
MIIC9jCCAd6gAwIBAgIUWNZiLduEyaqkuZN+37adYRA+pncwDQYJKoZIhvcNAQEL
BQAwETEPMA0GA1UEAwwGQ0EtUlNBMB4XDTE5MDYyODAyNTQyOFoXDTI5MDYyNTAy
NTQyOFowFTETMBEGA1UEAwwKQ0xJRU5ULVJTQTCCASIwDQYJKoZIhvcNAQEBBQAD
ggEPADCCAQoCggEBAK7VqlYs4QYc3p+uaVHtuQDCYJAdH0NpEuTbmndzL7GAuSKW
NoW5FTS6h3d0sZ19rS+SGH2fmgrt3SS+EDMQaHcQeBM2RCq7Kmyzq9qswCl/oZK0
CEjlfPi13QhtRz8/UgpQk35mZytvLQuZfSYzP5z+Mn4EH5tlfpwQuIIADj3LuhkM
2zj4xl4YlUzvIbquefQfHi9UmNgGZQz/QVDPNntoumdQf/c9I70GB37Y+UxACWEP
/MFGQWwNVD+Eg/6K/AISXkwHeqv6AEL7S+O+AUnca/hpruw6EFn1I3cjkzqOw2Mp
HVqrSUUua69WaPxTohnPv6C2sKJjtZPBcPgiIDcCAwEAAaNCMEAwHQYDVR0OBBYE
FBwXG3/F5b7TIUYESdaVJR+1kP2EMB8GA1UdIwQYMBaAFDpgWklDIGQxnrF9KJZd
jG4AMKY1MA0GCSqGSIb3DQEBCwUAA4IBAQB3Jx+p4kpVty4+ZL4IpzHiAFj/Eygu
nEuH+WXwtGCvdAW12CakJGLZ7ipfnI7mZXqnnYeM4TdniBXBz3vbFeMwR0cRhOjO
5FNnvA4dorh+xfT6MH19yd0NhGK7OhcLKMleSkEGyciEqTHn+GeUvcsVt6Hyo28u
TX3tqpX0o9mnyIYW3woQ3IBF9pdAwTLhuvUB0eJX5n/ydJdPiF2naoHEPOpGKIzh
vREACUeosr+ilst01tVrCHS5Ovjclef5i8BWpUqglfoeg9NNp+qUd/8d0bQVywO+
voUgPQbyRZeF9gtFUN/kzCagVcTJNnTGlkDuKFJ8fwhBwhSqHxqjyibq
-----END CERTIFICATE-----
