Certificate:
    Data:
        Version: 3 (0x2)
        Serial Number:
            72:9d:1f:00:47:2d:da:c9:47:80:c0:aa:2e:dd:25:af:ea:cf:a3:d0
        Signature Algorithm: ecdsa-with-SHA256
        Issuer: CN = CA-ECDSA-SECP256R1
        Validity
            Not Before: Jul 30 09:20:59 2020 GMT
            Not After : Jul 28 09:20:59 2030 GMT
        Subject: CN = CLIENT-ECDSA-SECP256R1
        Subject Public Key Info:
            Public Key Algorithm: id-ecPublicKey
                Public-Key: (256 bit)
                pub:
                    04:9f:2b:1a:46:4e:76:fe:fd:88:4e:10:4a:7f:d8:
                    f9:43:93:0b:9d:a0:9e:11:8d:a5:83:0b:7c:5d:93:
                    54:d7:d2:fc:ea:6f:27:44:e6:03:1c:24:e1:06:ba:
                    81:14:54:4c:1f:9e:a1:d0:32:38:ab:5f:08:6f:0e:
                    09:08:49:1d:6d
                ASN1 OID: prime256v1
                NIST CURVE: P-256
        X509v3 extensions:
            X509v3 Basic Constraints: critical
                CA:FALSE
            X509v3 Subject Key Identifier: 
                C1:33:02:68:4F:02:53:16:5E:16:D4:3B:76:54:62:EB:DB:D6:07:11
            X509v3 Authority Key Identifier: 
                keyid:31:49:26:40:5F:9B:BA:12:CD:7C:44:37:12:2F:FE:76:F9:D7:37:2A

    Signature Algorithm: ecdsa-with-SHA256
         30:45:02:20:34:fd:e6:9e:04:2c:c0:ab:4c:92:ad:ee:44:0b:
         e1:a7:ec:fd:b5:4b:35:81:d9:72:15:5b:79:d0:96:6d:d8:35:
         02:21:00:ea:4f:c1:e2:8c:e7:6c:84:bd:df:71:d5:47:8c:36:
         c1:a4:6f:bd:0f:78:d1:ac:56:84:8c:f9:c2:ef:c0:0f:96
-----BEGIN CERTIFICATE-----
MIIBkDCCATagAwIBAgIUcp0fAEct2slHgMCqLt0lr+rPo9AwCgYIKoZIzj0EAwIw
HTEbMBkGA1UEAwwSQ0EtRUNEU0EtU0VDUDI1NlIxMB4XDTIwMDczMDA5MjA1OVoX
DTMwMDcyODA5MjA1OVowITEfMB0GA1UEAwwWQ0xJRU5ULUVDRFNBLVNFQ1AyNTZS
MTBZMBMGByqGSM49AgEGCCqGSM49AwEHA0IABJ8rGkZOdv79iE4QSn/Y+UOTC52g
nhGNpYMLfF2TVNfS/OpvJ0TmAxwk4Qa6gRRUTB+eodAyOKtfCG8OCQhJHW2jUDBO
MAwGA1UdEwEB/wQCMAAwHQYDVR0OBBYEFMEzAmhPAlMWXhbUO3ZUYuvb1gcRMB8G
A1UdIwQYMBaAFDFJJkBfm7oSzXxENxIv/nb51zcqMAoGCCqGSM49BAMCA0gAMEUC
IDT95p4ELMCrTJKt7kQL4afs/bVLNYHZchVbedCWbdg1AiEA6k/B4oznbIS933HV
R4w2waRvvQ940axWhIz5wu/AD5Y=
-----END CERTIFICATE-----
