Certificate:
    Data:
        Version: 3 (0x2)
        Serial Number:
            0b:0c:9c:a3:3c:11:76:f0:2f:ab:5d:e7:b7:c1:97:ae:bd:04:39:14
        Signature Algorithm: ecdsa-with-SHA256
        Issuer: CN = CA-ECDSA-SECP384R1
        Validity
            Not Before: Jun 28 02:54:28 2019 GMT
            Not After : Jun 25 02:54:28 2029 GMT
        Subject: CN = CLIENT-ECDSA-SECP384R1
        Subject Public Key Info:
            Public Key Algorithm: id-ecPublicKey
                Public-Key: (384 bit)
                pub:
                    04:33:2c:e0:9a:98:f3:e6:4a:95:bc:f7:ec:52:f3:
                    f9:53:b4:96:a4:02:0a:38:45:fd:a8:37:00:87:bd:
                    74:a9:3d:35:8a:7e:c1:73:8b:09:88:5b:b0:24:91:
                    b5:24:d1:46:e3:d9:4c:c2:6d:83:b8:36:ea:66:23:
                    d0:fb:3c:bc:48:19:5b:fd:2a:18:a2:f9:48:75:d7:
                    80:1e:ba:61:29:94:29:aa:08:89:2c:03:ad:db:5b:
                    94:e3:43:b4:ef:a6:6d
                ASN1 OID: secp384r1
                NIST CURVE: P-384
        X509v3 extensions:
            X509v3 Subject Key Identifier: 
                4F:4A:BB:40:E7:DB:B1:06:B7:2B:23:42:46:41:63:48:92:C3:59:B7
            X509v3 Authority Key Identifier: 
                keyid:3C:0C:58:BD:97:17:25:ED:BB:79:EE:D2:46:4B:42:CE:67:BD:1B:77

    Signature Algorithm: ecdsa-with-SHA256
         30:64:02:30:44:d7:b0:d1:bd:ef:5d:bd:b7:d0:bd:62:c1:96:
         eb:56:7d:10:f3:cc:68:a7:d4:d0:fa:43:a4:b1:23:88:52:76:
         3a:74:e3:70:b8:c7:d8:37:09:7a:b2:85:76:b2:4b:94:02:30:
         4a:73:bc:5b:1f:01:7f:b8:4d:83:c4:9b:b8:ce:69:73:8a:19:
         59:17:b2:70:b3:c8:47:ba:8b:aa:cc:20:04:88:3a:09:88:70:
         64:7c:f0:05:bd:da:14:dd:20:b4:0b:9b
-----BEGIN CERTIFICATE-----
MIIBvjCCAUWgAwIBAgIUCwycozwRdvAvq13nt8GXrr0EORQwCgYIKoZIzj0EAwIw
HTEbMBkGA1UEAwwSQ0EtRUNEU0EtU0VDUDM4NFIxMB4XDTE5MDYyODAyNTQyOFoX
DTI5MDYyNTAyNTQyOFowITEfMB0GA1UEAwwWQ0xJRU5ULUVDRFNBLVNFQ1AzODRS
MTB2MBAGByqGSM49AgEGBSuBBAAiA2IABDMs4JqY8+ZKlbz37FLz+VO0lqQCCjhF
/ag3AIe9dKk9NYp+wXOLCYhbsCSRtSTRRuPZTMJtg7g26mYj0Ps8vEgZW/0qGKL5
SHXXgB66YSmUKaoIiSwDrdtblONDtO+mbaNCMEAwHQYDVR0OBBYEFE9Ku0Dn27EG
tysjQkZBY0iSw1m3MB8GA1UdIwQYMBaAFDwMWL2XFyXtu3nu0kZLQs5nvRt3MAoG
CCqGSM49BAMCA2cAMGQCMETXsNG97129t9C9YsGW61Z9EPPMaKfU0PpDpLEjiFJ2
OnTjcLjH2DcJerKFdrJLlAIwSnO8Wx8Bf7hNg8SbuM5pc4oZWReycLPIR7qLqswg
BIg6CYhwZHzwBb3aFN0gtAub
-----END CERTIFICATE-----
