Certificate:
    Data:
        Version: 3 (0x2)
        Serial Number:
            7d:0e:3f:80:5b:95:d4:14:03:26:88:fa:22:10:b8:8c:86:d9:02:4b
        Signature Algorithm: ecdsa-with-SHA256
        Issuer: CN = CA-ECDSA
        Validity
            Not Before: Jun  5 02:53:45 2019 GMT
            Not After : Jun  2 02:53:45 2029 GMT
        Subject: CN = CLIENT-ECDSA
        Subject Public Key Info:
            Public Key Algorithm: id-ecPublicKey
                Public-Key: (256 bit)
                pub:
                    04:2a:68:43:7d:80:f6:d6:3d:d4:e9:55:d3:99:8a:
                    91:1e:d2:e2:a8:d3:81:7e:31:e4:b3:e1:2b:3f:91:
                    16:d5:9d:2b:5e:cd:ea:b1:4e:7b:87:a1:55:07:d5:
                    b3:1e:55:6e:1e:cb:41:01:44:3a:4d:fd:a3:4b:21:
                    19:5d:19:ec:21
                ASN1 OID: prime256v1
                NIST CURVE: P-256
        X509v3 extensions:
            X509v3 Subject Key Identifier: 
                9F:40:C1:E3:49:4F:CB:9A:BC:91:33:47:9C:50:71:EF:E0:F4:C8:53
            X509v3 Authority Key Identifier: 
                keyid:CC:50:36:F5:96:D1:7A:CF:05:BB:E2:7C:5F:59:EB:46:2A:AD:76:B5

    Signature Algorithm: ecdsa-with-SHA256
         30:45:02:20:0f:a3:1d:0a:c4:76:f6:91:cd:d3:92:27:a6:61:
         bb:e1:51:1c:14:26:e7:21:6e:dd:db:b5:07:27:b9:e6:f7:a3:
         02:21:00:cc:80:6d:1e:5c:b1:36:16:52:3d:a8:d0:be:f2:d9:
         ac:b7:c9:e7:f3:36:eb:5e:4c:70:3d:39:0a:27:cb:d3:a2
-----BEGIN CERTIFICATE-----
MIIBbjCCARSgAwIBAgIUfQ4/gFuV1BQDJoj6IhC4jIbZAkswCgYIKoZIzj0EAwIw
EzERMA8GA1UEAwwIQ0EtRUNEU0EwHhcNMTkwNjA1MDI1MzQ1WhcNMjkwNjAyMDI1
MzQ1WjAXMRUwEwYDVQQDDAxDTElFTlQtRUNEU0EwWTATBgcqhkjOPQIBBggqhkjO
PQMBBwNCAAQqaEN9gPbWPdTpVdOZipEe0uKo04F+MeSz4Ss/kRbVnStezeqxTnuH
oVUH1bMeVW4ey0EBRDpN/aNLIRldGewho0IwQDAdBgNVHQ4EFgQUn0DB40lPy5q8
kTNHnFBx7+D0yFMwHwYDVR0jBBgwFoAUzFA29ZbRes8Fu+J8X1nrRiqtdrUwCgYI
KoZIzj0EAwIDSAAwRQIgD6MdCsR29pHN05InpmG74VEcFCbnIW7d27UHJ7nm96MC
IQDMgG0eXLE2FlI9qNC+8tmst8nn8zbrXkxwPTkKJ8vTog==
-----END CERTIFICATE-----
