Certificate:
    Data:
        Version: 3 (0x2)
        Serial Number:
            34:74:90:1d:ad:6b:a2:a1:8d:a8:4c:ca:72:ea:e4:29:d1:98:67:41
        Signature Algorithm: sha256WithRSAEncryption
        Issuer: CN = CA-RSA
        Validity
            Not Before: Jul 30 09:20:59 2020 GMT
            Not After : Jul 28 09:20:59 2030 GMT
        Subject: CN = CLIENT-RSA
        Subject Public Key Info:
            Public Key Algorithm: rsaEncryption
                RSA Public-Key: (2048 bit)
                Modulus:
                    00:bf:ca:0a:40:2c:1b:7c:e5:ae:92:dc:5d:e5:53:
                    03:e1:f7:b0:35:ec:aa:b6:5d:2d:94:1d:4f:68:b6:
                    a6:6f:70:11:c2:14:e2:57:eb:f3:80:f3:cb:4e:0b:
                    f8:a5:28:c1:cb:89:ff:30:94:6a:02:8c:88:d5:58:
                    5e:2c:e5:ef:73:4a:34:3b:18:0b:70:bb:c8:03:93:
                    06:34:cf:c6:ff:ab:9f:d3:86:5c:d3:47:68:59:33:
                    92:4f:f3:d7:0c:e7:fa:3a:49:c0:9c:12:7a:6d:42:
                    d8:af:b1:54:7b:df:7f:b3:44:4a:64:5f:db:fc:d9:
                    c8:1b:33:35:d0:84:97:cf:63:59:85:5a:5d:2a:47:
                    6c:5c:e0:92:bd:f8:82:fd:60:02:e4:4c:f1:8c:ad:
                    41:f2:7c:23:66:76:c7:f5:a4:3e:f1:eb:c5:57:d6:
                    93:79:e9:15:68:99:62:40:e3:a6:c8:7c:4c:c3:d1:
                    80:4a:a4:d2:b0:54:18:df:d5:e4:d3:34:ce:79:81:
                    f0:57:5a:19:e8:7f:72:59:6d:3a:01:ac:b3:2b:59:
                    bd:4d:7b:4b:61:32:bd:83:2d:29:26:e0:c2:6a:9c:
                    9f:f3:9b:6e:36:e4:22:bc:d9:0e:1e:b8:fd:a5:7c:
                    1b:65:b1:fa:94:74:d8:86:e2:ca:b6:ae:bd:bf:cf:
                    81:e9
                Exponent: 65537 (0x10001)
        X509v3 extensions:
            X509v3 Basic Constraints: critical
                CA:FALSE
            X509v3 Subject Key Identifier: 
                9B:97:3B:9E:B7:B0:DE:57:79:71:05:D0:20:E4:DA:AE:91:50:C4:7B
            X509v3 Authority Key Identifier: 
                keyid:DA:52:2A:D6:61:35:DB:7A:12:FD:14:FD:AD:78:CA:0B:BD:F9:DD:59

    Signature Algorithm: sha256WithRSAEncryption
         71:25:bc:f5:c1:2a:88:01:c6:e8:3d:8f:53:77:89:5e:54:6e:
         04:c7:c7:70:a0:6b:46:6c:fa:58:a6:09:a4:08:0f:08:a5:1b:
         fe:12:fc:f0:a1:8b:89:69:48:12:e7:6b:0d:09:19:67:0a:12:
         77:6f:83:eb:24:9f:f8:ea:cf:74:9b:5f:19:cc:49:aa:62:98:
         2b:8c:3a:7b:08:c7:fc:df:ca:50:9c:f0:15:3f:50:0b:31:0d:
         18:8a:5d:1e:1a:c5:ee:3b:d8:a9:d2:41:24:85:2c:77:c1:a2:
         bf:72:34:91:d7:ab:34:5b:3f:de:bf:1d:a2:93:8d:d1:d6:be:
         60:d3:9f:45:a5:97:d5:0f:7e:79:d9:5f:cf:d2:ce:5b:e6:ec:
         aa:5d:30:8d:a5:9b:02:8a:a6:3a:92:da:ab:70:3b:4d:21:3e:
         0a:c4:4c:3e:13:fa:0c:39:b4:91:d2:0f:4e:91:53:53:93:d9:
         c1:b1:b0:07:2c:b6:b5:2e:40:f0:b0:f2:d9:e6:b7:b9:aa:b8:
         1c:60:a6:1f:d3:46:ae:c0:a5:eb:ee:41:c8:e4:9a:16:fe:75:
         d3:c9:16:14:b2:cc:ad:ee:5d:96:76:77:c7:e5:cd:11:04:90:
         a0:5d:55:98:d2:e4:27:91:ed:d4:c0:a1:8d:47:57:a3:d6:36:
         9c:cd:33:ee
-----BEGIN CERTIFICATE-----
MIIDBDCCAeygAwIBAgIUNHSQHa1roqGNqEzKcurkKdGYZ0EwDQYJKoZIhvcNAQEL
BQAwETEPMA0GA1UEAwwGQ0EtUlNBMB4XDTIwMDczMDA5MjA1OVoXDTMwMDcyODA5
MjA1OVowFTETMBEGA1UEAwwKQ0xJRU5ULVJTQTCCASIwDQYJKoZIhvcNAQEBBQAD
ggEPADCCAQoCggEBAL/KCkAsG3zlrpLcXeVTA+H3sDXsqrZdLZQdT2i2pm9wEcIU
4lfr84Dzy04L+KUowcuJ/zCUagKMiNVYXizl73NKNDsYC3C7yAOTBjTPxv+rn9OG
XNNHaFkzkk/z1wzn+jpJwJwSem1C2K+xVHvff7NESmRf2/zZyBszNdCEl89jWYVa
XSpHbFzgkr34gv1gAuRM8YytQfJ8I2Z2x/WkPvHrxVfWk3npFWiZYkDjpsh8TMPR
gEqk0rBUGN/V5NM0znmB8FdaGeh/clltOgGssytZvU17S2EyvYMtKSbgwmqcn/Ob
bjbkIrzZDh64/aV8G2Wx+pR02Ibiyrauvb/PgekCAwEAAaNQME4wDAYDVR0TAQH/
BAIwADAdBgNVHQ4EFgQUm5c7nrew3ld5cQXQIOTarpFQxHswHwYDVR0jBBgwFoAU
2lIq1mE123oS/RT9rXjKC7353VkwDQYJKoZIhvcNAQELBQADggEBAHElvPXBKogB
xug9j1N3iV5UbgTHx3Cga0Zs+limCaQIDwilG/4S/PChi4lpSBLnaw0JGWcKEndv
g+skn/jqz3SbXxnMSapimCuMOnsIx/zfylCc8BU/UAsxDRiKXR4axe472KnSQSSF
LHfBor9yNJHXqzRbP96/HaKTjdHWvmDTn0Wll9UPfnnZX8/Szlvm7KpdMI2lmwKK
pjqS2qtwO00hPgrETD4T+gw5tJHSD06RU1OT2cGxsAcstrUuQPCw8tnmt7mquBxg
ph/TRq7ApevuQcjkmhb+ddPJFhSyzK3uXZZ2d8flzREEkKBdVZjS5CeR7dTAoY1H
V6PWNpzNM+4=
-----END CERTIFICATE-----
