Certificate:
    Data:
        Version: 3 (0x2)
        Serial Number:
            10:15:9d:06:bd:d0:a4:47:0f:4a:84:fe:2a:62:6a:0c:ab:c3:8b:d7
        Signature Algorithm: ecdsa-with-SHA512
        Issuer: CN = CA-ECDSA-SECP521R1
        Validity
            Not Before: Jul 30 09:20:59 2020 GMT
            Not After : Jul 28 09:20:59 2030 GMT
        Subject: CN = CLIENT-ECDSA-SECP521R1
        Subject Public Key Info:
            Public Key Algorithm: id-ecPublicKey
                Public-Key: (521 bit)
                pub:
                    04:00:1d:98:fb:53:b7:d1:09:63:46:c0:aa:eb:07:
                    c5:4f:94:fa:47:ef:26:0f:8f:ae:79:07:8f:dc:bf:
                    b8:6f:4d:1d:37:e4:d6:d4:fb:3f:52:cc:12:09:c5:
                    ca:46:07:90:9b:c8:a0:3c:88:1d:77:97:b6:f8:c2:
                    46:39:72:1c:1c:60:db:00:85:92:21:dd:51:06:df:
                    9e:04:2a:a5:bc:a2:56:b9:cb:f0:92:0c:be:15:10:
                    64:e2:00:13:7e:32:1c:e5:e8:3d:d3:a4:76:d5:06:
                    c7:60:10:44:9f:7d:ef:d9:5d:24:d6:0f:f4:e1:e3:
                    7e:27:67:c5:07:79:6c:cb:69:44:25:4b:6a
                ASN1 OID: secp521r1
                NIST CURVE: P-521
        X509v3 extensions:
            X509v3 Basic Constraints: critical
                CA:FALSE
            X509v3 Subject Key Identifier: 
                8C:F4:98:5A:3A:71:87:92:DE:17:7C:D4:AD:BD:E3:25:3C:48:8D:CD
            X509v3 Authority Key Identifier: 
                keyid:44:56:E3:9D:BE:AB:36:12:90:A4:4A:6E:66:6B:44:3D:0D:FA:2A:E6

    Signature Algorithm: ecdsa-with-SHA512
         30:81:88:02:42:01:f2:dd:36:73:b0:af:47:e5:a0:59:12:55:
         6b:42:5d:9d:41:ea:eb:dc:3e:09:50:86:5c:c7:a2:6b:6e:6f:
         e9:07:91:65:74:26:d0:3c:1c:a5:48:49:78:7b:4d:af:79:29:
         30:4e:ec:67:a7:c8:81:96:a9:8b:8b:26:9f:06:5c:a2:f0:02:
         42:01:f7:c3:26:25:bf:41:65:c2:0e:e2:f8:0f:df:b4:ef:38:
         1a:ad:7e:f4:a4:40:76:4b:6c:f7:e1:c5:58:d3:db:2f:a6:e1:
         f5:c3:2b:f0:8a:7e:dc:af:4e:d0:b9:40:d5:cb:9e:ac:64:3e:
         c6:fc:74:84:8a:b5:43:c0:56:48:b4:70:59
-----BEGIN CERTIFICATE-----
MIICGDCCAXmgAwIBAgIUEBWdBr3QpEcPSoT+KmJqDKvDi9cwCgYIKoZIzj0EAwQw
HTEbMBkGA1UEAwwSQ0EtRUNEU0EtU0VDUDUyMVIxMB4XDTIwMDczMDA5MjA1OVoX
DTMwMDcyODA5MjA1OVowITEfMB0GA1UEAwwWQ0xJRU5ULUVDRFNBLVNFQ1A1MjFS
MTCBmzAQBgcqhkjOPQIBBgUrgQQAIwOBhgAEAB2Y+1O30QljRsCq6wfFT5T6R+8m
D4+ueQeP3L+4b00dN+TW1Ps/UswSCcXKRgeQm8igPIgdd5e2+MJGOXIcHGDbAIWS
Id1RBt+eBCqlvKJWucvwkgy+FRBk4gATfjIc5eg906R21QbHYBBEn33v2V0k1g/0
4eN+J2fFB3lsy2lEJUtqo1AwTjAMBgNVHRMBAf8EAjAAMB0GA1UdDgQWBBSM9Jha
OnGHkt4XfNStveMlPEiNzTAfBgNVHSMEGDAWgBREVuOdvqs2EpCkSm5ma0Q9Dfoq
5jAKBggqhkjOPQQDBAOBjAAwgYgCQgHy3TZzsK9H5aBZElVrQl2dQerr3D4JUIZc
x6Jrbm/pB5FldCbQPBylSEl4e02veSkwTuxnp8iBlqmLiyafBlyi8AJCAffDJiW/
QWXCDuL4D9+07zgarX70pEB2S2z34cVY09svpuH1wyvwin7cr07QuUDVy56sZD7G
/HSEirVDwFZItHBZ
-----END CERTIFICATE-----
