Certificate:
    Data:
        Version: 3 (0x2)
        Serial Number:
            10:15:9d:06:bd:d0:a4:47:0f:4a:84:fe:2a:62:6a:0c:ab:c3:8b:d6
        Signature Algorithm: ecdsa-with-SHA512
        Issuer: CN = CA-ECDSA-SECP521R1
        Validity
            Not Before: Jul 30 09:20:59 2020 GMT
            Not After : Jul 28 09:20:59 2030 GMT
        Subject: CN = SERVER-ECDSA-SECP521R1
        Subject Public Key Info:
            Public Key Algorithm: id-ecPublicKey
                Public-Key: (521 bit)
                pub:
                    04:01:19:43:c2:f9:fa:d4:98:08:06:9d:f3:3e:0e:
                    6d:fd:40:a1:4b:f6:a9:c2:3a:9c:a4:ec:6c:f3:da:
                    7f:3c:86:e2:85:3b:b6:68:30:96:1c:fd:62:32:26:
                    bc:67:6f:9d:f6:a8:e1:4c:85:04:bd:7e:e7:68:ac:
                    9a:17:57:69:fb:f8:de:00:b7:ca:32:09:9d:ff:e3:
                    64:47:47:1c:02:db:33:fd:47:da:45:01:6d:78:37:
                    15:bd:ab:e5:66:d4:3c:af:ff:01:a1:00:a0:63:da:
                    e7:31:11:32:a3:41:9a:00:12:9a:41:c7:ec:c5:2d:
                    2e:a6:cc:a3:c9:32:f7:56:64:be:82:18:5d
                ASN1 OID: secp521r1
                NIST CURVE: P-521
        X509v3 extensions:
            X509v3 Basic Constraints: critical
                CA:FALSE
            X509v3 Subject Key Identifier: 
                27:E2:54:D0:19:0F:F2:3F:60:0C:B2:AB:ED:CC:ED:70:2C:27:5F:35
            X509v3 Authority Key Identifier: 
                keyid:44:56:E3:9D:BE:AB:36:12:90:A4:4A:6E:66:6B:44:3D:0D:FA:2A:E6

    Signature Algorithm: ecdsa-with-SHA512
         30:81:88:02:42:01:d1:4c:08:28:77:cc:e8:1c:aa:c6:14:60:
         46:84:76:fb:03:00:18:c1:3e:72:2f:ba:fd:24:8e:10:10:e5:
         1c:86:e4:b0:78:af:11:cf:a7:21:1a:d4:6d:f8:9c:16:34:82:
         0c:ad:91:a9:fc:9a:da:0a:c8:f9:70:e3:d2:ab:3c:d1:e6:02:
         42:01:43:61:bf:58:67:2a:26:2f:29:4c:a4:3d:21:19:64:84:
         6d:cf:54:d5:db:7c:cc:7e:b0:a6:ac:10:ae:a2:e0:69:62:21:
         06:c5:a8:b8:50:0a:00:84:73:71:70:a4:2f:e6:c2:38:12:67:
         e7:a1:cf:f6:47:21:fe:07:2e:5f:f2:cd:14
-----BEGIN CERTIFICATE-----
MIICGDCCAXmgAwIBAgIUEBWdBr3QpEcPSoT+KmJqDKvDi9YwCgYIKoZIzj0EAwQw
HTEbMBkGA1UEAwwSQ0EtRUNEU0EtU0VDUDUyMVIxMB4XDTIwMDczMDA5MjA1OVoX
DTMwMDcyODA5MjA1OVowITEfMB0GA1UEAwwWU0VSVkVSLUVDRFNBLVNFQ1A1MjFS
MTCBmzAQBgcqhkjOPQIBBgUrgQQAIwOBhgAEARlDwvn61JgIBp3zPg5t/UChS/ap
wjqcpOxs89p/PIbihTu2aDCWHP1iMia8Z2+d9qjhTIUEvX7naKyaF1dp+/jeALfK
Mgmd/+NkR0ccAtsz/UfaRQFteDcVvavlZtQ8r/8BoQCgY9rnMREyo0GaABKaQcfs
xS0upsyjyTL3VmS+ghhdo1AwTjAMBgNVHRMBAf8EAjAAMB0GA1UdDgQWBBQn4lTQ
GQ/yP2AMsqvtzO1wLCdfNTAfBgNVHSMEGDAWgBREVuOdvqs2EpCkSm5ma0Q9Dfoq
5jAKBggqhkjOPQQDBAOBjAAwgYgCQgHRTAgod8zoHKrGFGBGhHb7AwAYwT5yL7r9
JI4QEOUchuSweK8Rz6chGtRt+JwWNIIMrZGp/JraCsj5cOPSqzzR5gJCAUNhv1hn
KiYvKUykPSEZZIRtz1TV23zMfrCmrBCuouBpYiEGxai4UAoAhHNxcKQv5sI4Emfn
oc/2RyH+By5f8s0U
-----END CERTIFICATE-----
