Certificate:
    Data:
        Version: 3 (0x2)
        Serial Number:
            69:c1:6c:48:04:41:4d:4b:5f:5b:08:de:8e:bd:1a:1a:f7:10:c4:ae
        Signature Algorithm: sha256WithRSAEncryption
        Issuer: CN = CA-RSA
        Validity
            Not Before: Jun  5 02:53:45 2019 GMT
            Not After : Jun  2 02:53:45 2029 GMT
        Subject: CN = SERVER-RSA
        Subject Public Key Info:
            Public Key Algorithm: rsaEncryption
                RSA Public-Key: (2048 bit)
                Modulus:
                    00:b0:78:19:53:6c:80:57:6e:30:44:ad:78:82:25:
                    6a:d3:07:dd:f6:45:66:56:4a:17:4b:15:53:57:80:
                    a1:74:64:cd:78:e1:4b:1b:40:ef:b4:a7:90:5a:b2:
                    11:1a:c8:04:9b:70:49:18:76:21:b9:09:3e:8c:2d:
                    86:f2:ef:b9:dd:b8:8e:38:da:97:c2:d4:c4:46:7f:
                    86:12:02:81:30:c5:21:8f:8b:ba:1d:7b:58:bd:8b:
                    09:3d:af:96:68:cc:e5:56:95:e1:49:f2:90:64:9c:
                    85:8e:dd:74:47:3c:c4:85:6b:8b:91:ef:af:c2:9c:
                    a7:a9:bd:1e:86:b7:95:41:b0:07:52:81:cd:b2:66:
                    f6:bc:ca:eb:b4:2d:98:d4:d9:f9:3b:b6:a1:d4:59:
                    8e:7d:c5:d0:e7:12:c6:4a:d1:05:21:a5:be:d0:91:
                    05:01:f3:24:6e:c1:bc:c1:94:77:0f:02:97:77:c6:
                    4a:cc:92:f8:07:7c:f6:9b:51:77:c1:06:d1:f7:a9:
                    15:b7:7f:4f:3a:79:13:ed:4f:46:4a:d0:56:48:b4:
                    0c:54:08:84:23:93:54:b3:c9:c0:f1:09:a2:ab:e3:
                    40:f5:89:e6:32:07:4c:42:4e:7e:66:51:91:87:ce:
                    b4:0f:11:85:e8:69:47:f7:cd:6c:09:36:14:72:be:
                    b6:4d
                Exponent: 65537 (0x10001)
        X509v3 extensions:
            X509v3 Subject Key Identifier: 
                AF:AC:27:DC:70:DB:BE:C2:49:B0:65:DA:C5:B8:B0:63:DA:DC:12:FB
            X509v3 Authority Key Identifier: 
                keyid:7C:EF:24:39:07:9B:C4:E8:FA:BA:4F:12:A5:23:5A:78:EE:DB:B9:76

    Signature Algorithm: sha256WithRSAEncryption
         15:df:fb:f8:94:8a:03:55:c3:9d:99:7f:4c:40:01:6d:a3:d4:
         b8:5c:fd:15:00:49:b1:3d:9b:f8:29:d2:f9:99:9e:ee:6e:72:
         ed:3c:a2:51:e6:33:4b:66:e1:4e:b6:ca:92:26:40:0c:00:d1:
         30:f3:15:84:d6:88:e5:4a:75:13:67:c5:30:ba:78:0f:ac:6a:
         4c:47:84:57:31:fe:6e:93:f3:b9:be:e5:25:8c:43:ee:70:a6:
         0f:49:d0:c9:b1:29:04:a7:6b:cb:81:a2:84:8f:82:1f:d9:f3:
         fa:a5:fc:79:95:8c:dd:36:7c:4c:52:83:6d:27:a4:ed:02:f2:
         99:63:5a:88:b4:04:47:5a:1c:2c:4c:52:36:56:97:e6:c5:47:
         4e:29:60:7e:b6:f4:bd:0d:f9:be:22:16:7a:cd:9e:dc:7e:a3:
         5f:32:d7:b6:1e:2f:f9:10:b7:ea:41:75:6a:d1:6c:7d:42:71:
         9f:35:32:2f:62:67:da:d3:df:74:68:4f:f0:d4:30:ed:93:c0:
         2c:87:70:24:86:a1:ad:ae:4e:13:5d:ca:30:79:d9:8f:a7:64:
         d0:e3:7d:14:96:0a:4c:36:40:98:40:4b:cc:7e:74:1f:c0:fb:
         4c:9d:9f:23:eb:84:6d:02:c7:80:11:91:b8:23:79:6d:1d:39:
         63:e4:2a:69
-----BEGIN CERTIFICATE-----
MIIC9jCCAd6gAwIBAgIUacFsSARBTUtfWwjejr0aGvcQxK4wDQYJKoZIhvcNAQEL
BQAwETEPMA0GA1UEAwwGQ0EtUlNBMB4XDTE5MDYwNTAyNTM0NVoXDTI5MDYwMjAy
NTM0NVowFTETMBEGA1UEAwwKU0VSVkVSLVJTQTCCASIwDQYJKoZIhvcNAQEBBQAD
ggEPADCCAQoCggEBALB4GVNsgFduMESteIIlatMH3fZFZlZKF0sVU1eAoXRkzXjh
SxtA77SnkFqyERrIBJtwSRh2IbkJPowthvLvud24jjjal8LUxEZ/hhICgTDFIY+L
uh17WL2LCT2vlmjM5VaV4UnykGSchY7ddEc8xIVri5Hvr8Kcp6m9Hoa3lUGwB1KB
zbJm9rzK67QtmNTZ+Tu2odRZjn3F0OcSxkrRBSGlvtCRBQHzJG7BvMGUdw8Cl3fG
SsyS+Ad89ptRd8EG0fepFbd/Tzp5E+1PRkrQVki0DFQIhCOTVLPJwPEJoqvjQPWJ
5jIHTEJOfmZRkYfOtA8RhehpR/fNbAk2FHK+tk0CAwEAAaNCMEAwHQYDVR0OBBYE
FK+sJ9xw277CSbBl2sW4sGPa3BL7MB8GA1UdIwQYMBaAFHzvJDkHm8To+rpPEqUj
Wnju27l2MA0GCSqGSIb3DQEBCwUAA4IBAQAV3/v4lIoDVcOdmX9MQAFto9S4XP0V
AEmxPZv4KdL5mZ7ubnLtPKJR5jNLZuFOtsqSJkAMANEw8xWE1ojlSnUTZ8UwungP
rGpMR4RXMf5uk/O5vuUljEPucKYPSdDJsSkEp2vLgaKEj4If2fP6pfx5lYzdNnxM
UoNtJ6TtAvKZY1qItARHWhwsTFI2VpfmxUdOKWB+tvS9Dfm+IhZ6zZ7cfqNfMte2
Hi/5ELfqQXVq0Wx9QnGfNTIvYmfa0990aE/w1DDtk8Ash3AkhqGtrk4TXcowedmP
p2TQ430UlgpMNkCYQEvMfnQfwPtMnZ8j64RtAseAEZG4I3ltHTlj5Cpp
-----END CERTIFICATE-----
