Certificate:
    Data:
        Version: 3 (0x2)
        Serial Number:
            34:74:90:1d:ad:6b:a2:a1:8d:a8:4c:ca:72:ea:e4:29:d1:98:67:40
        Signature Algorithm: sha256WithRSAEncryption
        Issuer: CN = CA-RSA
        Validity
            Not Before: Jul 30 09:20:58 2020 GMT
            Not After : Jul 28 09:20:58 2030 GMT
        Subject: CN = SERVER-RSA
        Subject Public Key Info:
            Public Key Algorithm: rsaEncryption
                RSA Public-Key: (2048 bit)
                Modulus:
                    00:c8:0d:42:0c:81:f0:1d:14:cf:39:03:6b:65:f8:
                    d4:02:6a:ef:aa:7c:f4:ff:13:bb:9e:b2:6f:77:55:
                    3d:00:3d:14:c6:df:0d:34:fd:6d:ba:34:a6:68:d4:
                    11:b2:8c:cc:59:2a:4f:64:bf:17:81:bf:e8:e2:42:
                    9f:c0:63:77:0b:95:11:ff:6b:84:b4:cc:98:8b:e4:
                    5a:fb:f2:49:35:dd:75:58:ee:67:2a:26:62:72:93:
                    8a:b6:30:be:63:25:ac:c5:c0:64:cb:85:f4:a3:c0:
                    44:cc:a6:07:0a:19:45:1b:89:21:43:6a:fb:10:0e:
                    53:77:f2:6a:a7:d7:97:2b:6d:13:0a:68:fd:c0:96:
                    a2:20:fd:8d:a9:c7:44:57:a0:23:f3:c4:38:14:6e:
                    ee:2e:79:b8:ee:98:46:ad:12:17:ff:5b:54:ea:4e:
                    73:ed:50:7d:df:c6:72:c3:72:e7:fd:20:52:7c:60:
                    3a:38:1b:e2:9d:09:ff:bb:16:b7:fd:a4:31:54:e5:
                    d5:b0:08:b6:41:aa:1d:2d:d4:4d:a5:24:41:c8:67:
                    c9:48:c5:24:20:d1:22:26:50:68:24:6c:53:4b:bd:
                    99:71:78:69:dd:1d:a1:2f:e1:8a:eb:f2:8a:66:cf:
                    65:ad:37:d6:d5:97:c8:bd:5d:cf:c2:e7:8a:ef:49:
                    d7:0d
                Exponent: 65537 (0x10001)
        X509v3 extensions:
            X509v3 Basic Constraints: critical
                CA:FALSE
            X509v3 Subject Key Identifier: 
                43:46:71:D4:8F:D2:11:78:1E:CA:37:2B:08:FD:EB:E7:8D:83:C7:0D
            X509v3 Authority Key Identifier: 
                keyid:DA:52:2A:D6:61:35:DB:7A:12:FD:14:FD:AD:78:CA:0B:BD:F9:DD:59

    Signature Algorithm: sha256WithRSAEncryption
         7a:28:cc:fb:ce:2a:99:59:86:6d:5e:e2:fd:e9:92:30:f2:14:
         6e:aa:7f:15:ed:62:86:0e:ff:bc:85:0f:76:5f:8b:3d:ad:bc:
         6b:d5:b1:e4:4d:e1:dd:96:da:54:cf:f7:b7:60:67:f5:ed:7a:
         98:80:c9:49:e3:7b:48:64:fa:82:e7:e7:4c:d0:1e:29:51:e1:
         28:27:5e:27:ad:7b:94:55:89:f1:df:66:6d:b6:4e:01:8f:5a:
         60:f1:5e:f8:22:a4:d0:8c:a1:c6:b5:5e:30:69:24:5c:09:91:
         46:2e:63:10:9d:2c:e8:2d:b5:c3:0e:e0:88:64:c5:54:96:cb:
         a0:00:65:37:99:40:08:f8:e1:bc:8e:1a:f2:51:69:1a:04:46:
         2c:1c:d4:2b:ad:f4:44:6e:ec:fd:46:13:65:6b:70:36:19:92:
         a3:9e:a4:aa:5e:a4:f5:bb:4e:9a:5b:13:66:e6:a8:83:d2:a0:
         07:33:df:db:b9:db:a2:0f:06:29:3c:91:56:bb:5d:54:cf:c3:
         da:9d:96:a8:27:34:4f:30:77:e5:a6:7a:a8:9c:ee:fb:af:b4:
         ec:c3:a4:f5:84:f0:3b:10:f4:5e:4d:16:86:64:9d:18:97:09:
         c1:5d:34:69:5c:8c:39:02:7a:a5:db:f9:74:62:7a:ad:dd:04:
         4c:3f:59:b0
-----BEGIN CERTIFICATE-----
MIIDBDCCAeygAwIBAgIUNHSQHa1roqGNqEzKcurkKdGYZ0AwDQYJKoZIhvcNAQEL
BQAwETEPMA0GA1UEAwwGQ0EtUlNBMB4XDTIwMDczMDA5MjA1OFoXDTMwMDcyODA5
MjA1OFowFTETMBEGA1UEAwwKU0VSVkVSLVJTQTCCASIwDQYJKoZIhvcNAQEBBQAD
ggEPADCCAQoCggEBAMgNQgyB8B0UzzkDa2X41AJq76p89P8Tu56yb3dVPQA9FMbf
DTT9bbo0pmjUEbKMzFkqT2S/F4G/6OJCn8BjdwuVEf9rhLTMmIvkWvvySTXddVju
ZyomYnKTirYwvmMlrMXAZMuF9KPARMymBwoZRRuJIUNq+xAOU3fyaqfXlyttEwpo
/cCWoiD9janHRFegI/PEOBRu7i55uO6YRq0SF/9bVOpOc+1Qfd/GcsNy5/0gUnxg
Ojgb4p0J/7sWt/2kMVTl1bAItkGqHS3UTaUkQchnyUjFJCDRIiZQaCRsU0u9mXF4
ad0doS/hiuvyimbPZa031tWXyL1dz8Lniu9J1w0CAwEAAaNQME4wDAYDVR0TAQH/
BAIwADAdBgNVHQ4EFgQUQ0Zx1I/SEXgeyjcrCP3r542Dxw0wHwYDVR0jBBgwFoAU
2lIq1mE123oS/RT9rXjKC7353VkwDQYJKoZIhvcNAQELBQADggEBAHoozPvOKplZ
hm1e4v3pkjDyFG6qfxXtYoYO/7yFD3Zfiz2tvGvVseRN4d2W2lTP97dgZ/XtepiA
yUnje0hk+oLn50zQHilR4SgnXiete5RVifHfZm22TgGPWmDxXvgipNCMoca1XjBp
JFwJkUYuYxCdLOgttcMO4IhkxVSWy6AAZTeZQAj44byOGvJRaRoERiwc1Cut9ERu
7P1GE2VrcDYZkqOepKpepPW7TppbE2bmqIPSoAcz39u526IPBik8kVa7XVTPw9qd
lqgnNE8wd+Wmeqic7vuvtOzDpPWE8DsQ9F5NFoZknRiXCcFdNGlcjDkCeqXb+XRi
eq3dBEw/WbA=
-----END CERTIFICATE-----
