Certificate:
    Data:
        Version: 3 (0x2)
        Serial Number:
            72:9d:1f:00:47:2d:da:c9:47:80:c0:aa:2e:dd:25:af:ea:cf:a3:cf
        Signature Algorithm: ecdsa-with-SHA256
        Issuer: CN = CA-ECDSA-SECP256R1
        Validity
            Not Before: Jul 30 09:20:59 2020 GMT
            Not After : Jul 28 09:20:59 2030 GMT
        Subject: CN = SERVER-ECDSA-SECP256R1
        Subject Public Key Info:
            Public Key Algorithm: id-ecPublicKey
                Public-Key: (256 bit)
                pub:
                    04:c1:8b:18:f7:a3:4b:b8:4f:fb:b0:95:b5:26:8e:
                    1d:d4:b1:4b:41:51:de:fd:c9:cd:a3:22:48:74:07:
                    47:be:7d:12:a8:26:2f:f2:28:09:f9:af:e1:dc:46:
                    3d:cd:45:e0:30:dc:a3:44:f2:c5:e4:98:d2:b3:b6:
                    8a:1d:03:39:bb
                ASN1 OID: prime256v1
                NIST CURVE: P-256
        X509v3 extensions:
            X509v3 Basic Constraints: critical
                CA:FALSE
            X509v3 Subject Key Identifier: 
                DC:EF:A8:FC:EC:6D:C2:09:0D:A4:ED:AF:0B:5D:66:71:76:8F:15:63
            X509v3 Authority Key Identifier: 
                keyid:31:49:26:40:5F:9B:BA:12:CD:7C:44:37:12:2F:FE:76:F9:D7:37:2A

    Signature Algorithm: ecdsa-with-SHA256
         30:45:02:21:00:fb:d2:73:06:eb:6e:4e:ff:29:a5:e3:be:d8:
         d1:b7:fe:72:a3:7a:1e:1c:59:41:21:0b:05:3b:8c:f9:05:2f:
         23:02:20:25:cd:a4:d2:da:b1:e3:64:35:74:5b:4a:eb:b4:d3:
         52:3a:6d:22:e9:62:79:2b:9e:95:cc:c1:c5:60:b1:5e:08
-----BEGIN CERTIFICATE-----
MIIBkDCCATagAwIBAgIUcp0fAEct2slHgMCqLt0lr+rPo88wCgYIKoZIzj0EAwIw
HTEbMBkGA1UEAwwSQ0EtRUNEU0EtU0VDUDI1NlIxMB4XDTIwMDczMDA5MjA1OVoX
DTMwMDcyODA5MjA1OVowITEfMB0GA1UEAwwWU0VSVkVSLUVDRFNBLVNFQ1AyNTZS
MTBZMBMGByqGSM49AgEGCCqGSM49AwEHA0IABMGLGPejS7hP+7CVtSaOHdSxS0FR
3v3JzaMiSHQHR759EqgmL/IoCfmv4dxGPc1F4DDco0TyxeSY0rO2ih0DObujUDBO
MAwGA1UdEwEB/wQCMAAwHQYDVR0OBBYEFNzvqPzsbcIJDaTtrwtdZnF2jxVjMB8G
A1UdIwQYMBaAFDFJJkBfm7oSzXxENxIv/nb51zcqMAoGCCqGSM49BAMCA0gAMEUC
IQD70nMG625O/yml477Y0bf+cqN6HhxZQSELBTuM+QUvIwIgJc2k0tqx42Q1dFtK
67TTUjptIulieSuelczBxWCxXgg=
-----END CERTIFICATE-----
