Certificate:
    Data:
        Version: 3 (0x2)
        Serial Number:
            3f:c6:bf:cb:50:86:69:c3:3b:a0:e2:0d:a7:6b:91:77:2a:e5:5b:d5
        Signature Algorithm: sha256WithRSAEncryption
        Issuer: CN = CA-PSS
        Validity
            Not Before: Jul 30 09:21:00 2020 GMT
            Not After : Jul 28 09:21:00 2030 GMT
        Subject: CN = SERVER-PSS
        Subject Public Key Info:
            Public Key Algorithm: rsaEncryption
                RSA Public-Key: (2048 bit)
                Modulus:
                    00:ac:3e:fa:1d:97:8d:1f:25:bf:68:80:72:b6:d1:
                    e0:9f:29:d5:20:0d:79:44:97:25:85:6c:ea:72:6c:
                    98:9d:5e:ad:9f:84:6d:5e:73:5d:5f:99:1d:a1:d6:
                    43:ce:b9:28:47:87:f8:23:4c:80:87:4b:6b:b3:8e:
                    a4:a8:74:dc:31:17:87:27:c5:55:f5:ac:30:52:c1:
                    96:7a:ce:87:c5:a7:33:2f:44:22:12:7b:98:8f:c8:
                    5c:d9:dd:a8:5b:d2:d7:43:85:22:cd:d5:ab:27:ec:
                    6a:50:62:7c:dc:d7:8f:7f:9c:6b:7f:c6:04:65:47:
                    5c:b2:9f:71:1e:30:e6:25:ae:d6:ca:f2:79:59:f7:
                    6f:64:c7:0a:c5:00:ec:21:a4:1c:82:cd:93:24:ab:
                    72:90:b9:41:4e:a8:df:21:25:4b:85:b4:e2:b1:62:
                    f7:17:91:93:27:c7:d6:1f:93:24:4a:87:d3:3b:b2:
                    80:e3:47:b1:da:ac:46:90:ba:76:97:68:48:77:0c:
                    f4:6d:4e:9d:dc:d8:b6:52:ec:c7:05:6e:df:ff:11:
                    e6:b4:b3:88:1a:f4:fd:e9:3c:a2:99:ce:da:c3:be:
                    b3:df:bf:48:4b:8c:40:0b:0b:b6:a9:fb:af:25:de:
                    ae:74:77:5b:39:04:29:c2:19:ad:8e:7f:34:bc:6e:
                    99:55
                Exponent: 65537 (0x10001)
        X509v3 extensions:
            X509v3 Basic Constraints: critical
                CA:FALSE
            X509v3 Subject Key Identifier: 
                55:AE:22:4C:A9:D6:40:F2:C2:A3:1F:FB:34:7B:3D:53:D8:D9:6D:F4
            X509v3 Authority Key Identifier: 
                keyid:A6:1C:DD:7A:C9:7D:3E:A8:78:91:7D:B5:75:2D:87:6C:DB:4F:00:FB

    Signature Algorithm: sha256WithRSAEncryption
         8f:e8:0b:ca:02:a0:41:2d:20:90:b8:77:45:9e:78:c3:fc:80:
         48:8c:1d:3b:cc:c3:5a:57:53:cf:24:ed:e3:0a:85:a0:f1:da:
         c0:7a:0e:66:90:7a:aa:3f:d5:6b:4d:7f:af:43:96:25:c5:9a:
         a2:4b:77:be:df:66:13:45:c9:d8:f4:5f:47:fd:5d:80:20:7f:
         c5:19:54:30:09:38:c8:c1:89:39:7f:44:df:2b:cd:ba:9a:dd:
         50:2d:f4:be:2f:2f:d8:3d:db:ee:65:48:4a:2f:aa:bf:54:6c:
         32:c6:7c:f1:03:e6:01:9d:72:7b:37:b2:b2:b5:10:1e:5e:f6:
         d6:3d:9f:8d:a4:16:e5:57:c3:d8:4c:3c:af:93:62:6f:2b:3a:
         3d:66:21:0a:e1:a9:ef:3f:5b:51:c9:af:79:dd:9a:58:3a:d9:
         ad:b8:1b:00:60:b5:c5:61:15:a2:07:da:69:e0:4f:81:db:33:
         1c:03:d1:0c:d7:d4:72:c7:99:6e:db:0e:f3:43:f3:2b:34:4b:
         5e:39:6d:ba:17:61:d9:b2:50:65:45:73:5a:d7:a6:6e:04:d5:
         f2:c2:c5:e0:8b:d5:b3:c8:97:4c:3c:33:10:29:a0:e1:5d:92:
         41:32:36:28:ba:3e:8a:4a:8b:44:60:d9:23:e7:73:c3:04:85:
         fd:26:2e:76
-----BEGIN CERTIFICATE-----
MIIDBDCCAeygAwIBAgIUP8a/y1CGacM7oOINp2uRdyrlW9UwDQYJKoZIhvcNAQEL
BQAwETEPMA0GA1UEAwwGQ0EtUFNTMB4XDTIwMDczMDA5MjEwMFoXDTMwMDcyODA5
MjEwMFowFTETMBEGA1UEAwwKU0VSVkVSLVBTUzCCASIwDQYJKoZIhvcNAQEBBQAD
ggEPADCCAQoCggEBAKw++h2XjR8lv2iAcrbR4J8p1SANeUSXJYVs6nJsmJ1erZ+E
bV5zXV+ZHaHWQ865KEeH+CNMgIdLa7OOpKh03DEXhyfFVfWsMFLBlnrOh8WnMy9E
IhJ7mI/IXNndqFvS10OFIs3VqyfsalBifNzXj3+ca3/GBGVHXLKfcR4w5iWu1sry
eVn3b2THCsUA7CGkHILNkySrcpC5QU6o3yElS4W04rFi9xeRkyfH1h+TJEqH0zuy
gONHsdqsRpC6dpdoSHcM9G1OndzYtlLsxwVu3/8R5rSziBr0/ek8opnO2sO+s9+/
SEuMQAsLtqn7ryXernR3WzkEKcIZrY5/NLxumVUCAwEAAaNQME4wDAYDVR0TAQH/
BAIwADAdBgNVHQ4EFgQUVa4iTKnWQPLCox/7NHs9U9jZbfQwHwYDVR0jBBgwFoAU
phzdesl9Pqh4kX21dS2HbNtPAPswDQYJKoZIhvcNAQELBQADggEBAI/oC8oCoEEt
IJC4d0WeeMP8gEiMHTvMw1pXU88k7eMKhaDx2sB6DmaQeqo/1WtNf69DliXFmqJL
d77fZhNFydj0X0f9XYAgf8UZVDAJOMjBiTl/RN8rzbqa3VAt9L4vL9g92+5lSEov
qr9UbDLGfPED5gGdcns3srK1EB5e9tY9n42kFuVXw9hMPK+TYm8rOj1mIQrhqe8/
W1HJr3ndmlg62a24GwBgtcVhFaIH2mngT4HbMxwD0QzX1HLHmW7bDvND8ys0S145
bboXYdmyUGVFc1rXpm4E1fLCxeCL1bPIl0w8MxApoOFdkkEyNii6PopKi0Rg2SPn
c8MEhf0mLnY=
-----END CERTIFICATE-----
