Certificate:
    Data:
        Version: 3 (0x2)
        Serial Number:
            6a:50:94:8a:dc:f1:79:f8:82:bd:4e:7b:e9:90:19:e2:eb:1a:2c:5f
        Signature Algorithm: ecdsa-with-SHA384
        Issuer: CN = CA-ECDSA-SECP384R1
        Validity
            Not Before: Jul 30 09:20:59 2020 GMT
            Not After : Jul 28 09:20:59 2030 GMT
        Subject: CN = SERVER-ECDSA-SECP384R1
        Subject Public Key Info:
            Public Key Algorithm: id-ecPublicKey
                Public-Key: (384 bit)
                pub:
                    04:d5:39:9c:2e:32:f8:9f:15:a4:0c:af:ff:3f:aa:
                    e4:14:29:49:0e:3c:89:b0:89:75:f5:92:88:26:8a:
                    4c:77:06:06:ee:63:a5:57:60:11:c6:5d:0e:3c:35:
                    c7:bf:a5:c1:48:f2:5d:70:e8:c1:4c:9f:40:ba:51:
                    f2:eb:11:4b:e2:04:d9:4d:e1:b5:27:a4:8f:f8:d1:
                    19:11:94:13:b8:72:75:45:b4:53:e1:24:ff:f4:4a:
                    8a:53:65:61:83:d1:0a
                ASN1 OID: secp384r1
                NIST CURVE: P-384
        X509v3 extensions:
            X509v3 Basic Constraints: critical
                CA:FALSE
            X509v3 Subject Key Identifier: 
                D1:C2:96:3E:66:46:C2:00:86:7E:F8:C4:8B:5A:58:93:BD:5B:7C:12
            X509v3 Authority Key Identifier: 
                keyid:44:F7:0E:8D:77:4C:FB:B3:5C:4F:9D:D1:1E:25:8B:EC:46:54:5E:C0

    Signature Algorithm: ecdsa-with-SHA384
         30:65:02:31:00:93:2f:2d:64:9a:81:73:db:f2:2c:6f:e8:ce:
         66:e0:7e:51:9b:c0:65:69:10:0e:c5:18:fb:11:22:0e:05:2b:
         dc:19:34:f9:73:db:f1:07:f3:3a:65:08:37:fe:5b:7a:f8:02:
         30:4c:a1:5f:47:14:44:7c:84:15:c5:5d:e4:c3:29:c9:96:40:
         6b:17:a3:e1:14:b8:f2:bc:bb:b2:4d:35:d2:a9:cd:34:c9:6e:
         c8:c5:74:77:d2:8d:c8:3d:66:1c:7f:dd:3b
-----BEGIN CERTIFICATE-----
MIIBzTCCAVOgAwIBAgIUalCUitzxefiCvU576ZAZ4usaLF8wCgYIKoZIzj0EAwMw
HTEbMBkGA1UEAwwSQ0EtRUNEU0EtU0VDUDM4NFIxMB4XDTIwMDczMDA5MjA1OVoX
DTMwMDcyODA5MjA1OVowITEfMB0GA1UEAwwWU0VSVkVSLUVDRFNBLVNFQ1AzODRS
MTB2MBAGByqGSM49AgEGBSuBBAAiA2IABNU5nC4y+J8VpAyv/z+q5BQpSQ48ibCJ
dfWSiCaKTHcGBu5jpVdgEcZdDjw1x7+lwUjyXXDowUyfQLpR8usRS+IE2U3htSek
j/jRGRGUE7hydUW0U+Ek//RKilNlYYPRCqNQME4wDAYDVR0TAQH/BAIwADAdBgNV
HQ4EFgQU0cKWPmZGwgCGfvjEi1pYk71bfBIwHwYDVR0jBBgwFoAURPcOjXdM+7Nc
T53RHiWL7EZUXsAwCgYIKoZIzj0EAwMDaAAwZQIxAJMvLWSagXPb8ixv6M5m4H5R
m8BlaRAOxRj7ESIOBSvcGTT5c9vxB/M6ZQg3/lt6+AIwTKFfRxREfIQVxV3kwynJ
lkBrF6PhFLjyvLuyTTXSqc00yW7IxXR30o3IPWYcf907
-----END CERTIFICATE-----
